
led_driver.elf:     file format elf32-avr

Sections:
Idx Name          Size      VMA       LMA       File off  Algn
  0 .text         00000e92  00000000  00000000  00000094  2**1
                  CONTENTS, ALLOC, LOAD, READONLY, CODE
  1 .data         0000003c  00800060  00000e92  00000f26  2**0
                  CONTENTS, ALLOC, LOAD, DATA
  2 .bss          0000000c  0080009c  0080009c  00000f62  2**0
                  ALLOC
  3 .comment      0000005c  00000000  00000000  00000f62  2**0
                  CONTENTS, READONLY
  4 .note.gnu.avr.deviceinfo 0000003c  00000000  00000000  00000fc0  2**2
                  CONTENTS, READONLY
  5 .debug_aranges 000001f8  00000000  00000000  00001000  2**3
                  CONTENTS, READONLY, DEBUGGING
  6 .debug_info   0000157b  00000000  00000000  000011f8  2**0
                  CONTENTS, READONLY, DEBUGGING
  7 .debug_abbrev 00000aef  00000000  00000000  00002773  2**0
                  CONTENTS, READONLY, DEBUGGING
  8 .debug_line   00000e13  00000000  00000000  00003262  2**0
                  CONTENTS, READONLY, DEBUGGING
  9 .debug_frame  0000033c  00000000  00000000  00004078  2**2
                  CONTENTS, READONLY, DEBUGGING
 10 .debug_str    0000063c  00000000  00000000  000043b4  2**0
                  CONTENTS, READONLY, DEBUGGING
 11 .debug_loc    00000a01  00000000  00000000  000049f0  2**0
                  CONTENTS, READONLY, DEBUGGING
 12 .debug_ranges 00000118  00000000  00000000  000053f1  2**0
                  CONTENTS, READONLY, DEBUGGING

Disassembly of section .text:

00000000 <__vectors>:
   0:	0e c0       	rjmp	.+28     	; 0x1e <__ctors_end>
   2:	28 c0       	rjmp	.+80     	; 0x54 <__bad_interrupt>
   4:	27 c0       	rjmp	.+78     	; 0x54 <__bad_interrupt>
   6:	26 c0       	rjmp	.+76     	; 0x54 <__bad_interrupt>
   8:	25 c0       	rjmp	.+74     	; 0x54 <__bad_interrupt>
   a:	f1 c2       	rjmp	.+1506   	; 0x5ee <__vector_5>
   c:	23 c0       	rjmp	.+70     	; 0x54 <__bad_interrupt>
   e:	22 c0       	rjmp	.+68     	; 0x54 <__bad_interrupt>
  10:	21 c0       	rjmp	.+66     	; 0x54 <__bad_interrupt>
  12:	20 c0       	rjmp	.+64     	; 0x54 <__bad_interrupt>
  14:	1f c0       	rjmp	.+62     	; 0x54 <__bad_interrupt>
  16:	1e c0       	rjmp	.+60     	; 0x54 <__bad_interrupt>
  18:	1d c0       	rjmp	.+58     	; 0x54 <__bad_interrupt>
  1a:	1c c0       	rjmp	.+56     	; 0x54 <__bad_interrupt>
  1c:	1b c0       	rjmp	.+54     	; 0x54 <__bad_interrupt>

0000001e <__ctors_end>:
  1e:	11 24       	eor	r1, r1
  20:	1f be       	out	0x3f, r1	; 63
  22:	cf e5       	ldi	r28, 0x5F	; 95
  24:	d2 e0       	ldi	r29, 0x02	; 2
  26:	de bf       	out	0x3e, r29	; 62
  28:	cd bf       	out	0x3d, r28	; 61

0000002a <__do_copy_data>:
  2a:	10 e0       	ldi	r17, 0x00	; 0
  2c:	a0 e6       	ldi	r26, 0x60	; 96
  2e:	b0 e0       	ldi	r27, 0x00	; 0
  30:	e2 e9       	ldi	r30, 0x92	; 146
  32:	fe e0       	ldi	r31, 0x0E	; 14
  34:	02 c0       	rjmp	.+4      	; 0x3a <__do_copy_data+0x10>
  36:	05 90       	lpm	r0, Z+
  38:	0d 92       	st	X+, r0
  3a:	ac 39       	cpi	r26, 0x9C	; 156
  3c:	b1 07       	cpc	r27, r17
  3e:	d9 f7       	brne	.-10     	; 0x36 <__do_copy_data+0xc>

00000040 <__do_clear_bss>:
  40:	20 e0       	ldi	r18, 0x00	; 0
  42:	ac e9       	ldi	r26, 0x9C	; 156
  44:	b0 e0       	ldi	r27, 0x00	; 0
  46:	01 c0       	rjmp	.+2      	; 0x4a <.do_clear_bss_start>

00000048 <.do_clear_bss_loop>:
  48:	1d 92       	st	X+, r1

0000004a <.do_clear_bss_start>:
  4a:	a8 3a       	cpi	r26, 0xA8	; 168
  4c:	b2 07       	cpc	r27, r18
  4e:	e1 f7       	brne	.-8      	; 0x48 <.do_clear_bss_loop>
  50:	72 d1       	rcall	.+740    	; 0x336 <main>
  52:	1d c7       	rjmp	.+3642   	; 0xe8e <_exit>

00000054 <__bad_interrupt>:
  54:	d5 cf       	rjmp	.-86     	; 0x0 <__vectors>

00000056 <adc_init>:

#include "adc.h"


void adc_init(void) {
	ADMUX =
  56:	80 e2       	ldi	r24, 0x20	; 32
  58:	87 b9       	out	0x07, r24	; 7
		| (0 << REFS0)		// (see above)
		| (1 << ADLAR)		// Set data register to left adjusted
		| (0b00 << MUX0)	// Enable ADC0 as single ended input
	;
	
	ADCSRA =
  5a:	87 e8       	ldi	r24, 0x87	; 135
  5c:	86 b9       	out	0x06, r24	; 6
		| (0 << ADATE)		// Disable auto trigger
		| (0 << ADIE)		// Disable adc conversion complete interrupt
		| (0b111 << ADPS0)	// Set prescaler division factor to 128
	;
	
	ADCSRB =
  5e:	13 b8       	out	0x03, r1	; 3
		  (0 << BIN)			// Disable bipolar input mode
		| (0 << IPR)			// Disable input polarity reversal
	;
	
	DIDR0 =				// Disable input buffer for all ADC
  60:	8c e3       	ldi	r24, 0x3C	; 60
  62:	84 bb       	out	0x14, r24	; 20
  64:	08 95       	ret

00000066 <adc_get_voltage>:

uint16_t adc_get_voltage(void) {
	uint32_t adcValue = 0;
	
	/* Enable ADC1 as single ended input */
	ADMUX = (ADMUX & ADC_MUX_MASK) | ADC_MUX_VOLTAGE;
  66:	87 b1       	in	r24, 0x07	; 7
  68:	80 7f       	andi	r24, 0xF0	; 240
  6a:	81 60       	ori	r24, 0x01	; 1
  6c:	87 b9       	out	0x07, r24	; 7
	
	/* Enable input buffer for ADC1 */
	DIDR0 &= ~(1 << ADC_VOLTAGE);
  6e:	a2 98       	cbi	0x14, 2	; 20
	
	/* Start the ADC */
	ADCSRA |= (1 << ADSC);
  70:	36 9a       	sbi	0x06, 6	; 6
	
	/* Wait for completion of conversion */
	while ( ADCSRA & (1 << ADSC) );
  72:	36 99       	sbic	0x06, 6	; 6
  74:	fe cf       	rjmp	.-4      	; 0x72 <adc_get_voltage+0xc>
	
	/* Read and store ADC */
	adcValue = ADCH;
  76:	85 b1       	in	r24, 0x05	; 5
	
	/* Disable input buffer for ADC1 */
	DIDR0 |= (1 << ADC_VOLTAGE);
  78:	a2 9a       	sbi	0x14, 2	; 20
	
	/* Wait for completion of conversion */
	while ( ADCSRA & (1 << ADSC) );
	
	/* Read and store ADC */
	adcValue = ADCH;
  7a:	90 e0       	ldi	r25, 0x00	; 0
  7c:	a0 e0       	ldi	r26, 0x00	; 0
  7e:	b0 e0       	ldi	r27, 0x00	; 0
	
	/* Disable input buffer for ADC1 */
	DIDR0 |= (1 << ADC_VOLTAGE);
	
	/* Calculate and return voltage */
	return (uint16_t)(adcValue * 5000 / 256);
  80:	88 0f       	add	r24, r24
  82:	99 1f       	adc	r25, r25
  84:	aa 1f       	adc	r26, r26
  86:	bb 1f       	adc	r27, r27
  88:	88 0f       	add	r24, r24
  8a:	99 1f       	adc	r25, r25
  8c:	aa 1f       	adc	r26, r26
  8e:	bb 1f       	adc	r27, r27
  90:	88 0f       	add	r24, r24
  92:	99 1f       	adc	r25, r25
  94:	aa 1f       	adc	r26, r26
  96:	bb 1f       	adc	r27, r27
  98:	ac 01       	movw	r20, r24
  9a:	bd 01       	movw	r22, r26
  9c:	44 0f       	add	r20, r20
  9e:	55 1f       	adc	r21, r21
  a0:	66 1f       	adc	r22, r22
  a2:	77 1f       	adc	r23, r23
  a4:	44 0f       	add	r20, r20
  a6:	55 1f       	adc	r21, r21
  a8:	66 1f       	adc	r22, r22
  aa:	77 1f       	adc	r23, r23
  ac:	84 0f       	add	r24, r20
  ae:	95 1f       	adc	r25, r21
  b0:	a6 1f       	adc	r26, r22
  b2:	b7 1f       	adc	r27, r23
  b4:	ac 01       	movw	r20, r24
  b6:	bd 01       	movw	r22, r26
  b8:	44 0f       	add	r20, r20
  ba:	55 1f       	adc	r21, r21
  bc:	66 1f       	adc	r22, r22
  be:	77 1f       	adc	r23, r23
  c0:	44 0f       	add	r20, r20
  c2:	55 1f       	adc	r21, r21
  c4:	66 1f       	adc	r22, r22
  c6:	77 1f       	adc	r23, r23
  c8:	84 0f       	add	r24, r20
  ca:	95 1f       	adc	r25, r21
  cc:	a6 1f       	adc	r26, r22
  ce:	b7 1f       	adc	r27, r23
  d0:	ac 01       	movw	r20, r24
  d2:	bd 01       	movw	r22, r26
  d4:	44 0f       	add	r20, r20
  d6:	55 1f       	adc	r21, r21
  d8:	66 1f       	adc	r22, r22
  da:	77 1f       	adc	r23, r23
  dc:	44 0f       	add	r20, r20
  de:	55 1f       	adc	r21, r21
  e0:	66 1f       	adc	r22, r22
  e2:	77 1f       	adc	r23, r23
  e4:	84 0f       	add	r24, r20
  e6:	95 1f       	adc	r25, r21
  e8:	a6 1f       	adc	r26, r22
  ea:	b7 1f       	adc	r27, r23
  ec:	ac 01       	movw	r20, r24
  ee:	bd 01       	movw	r22, r26
  f0:	44 0f       	add	r20, r20
  f2:	55 1f       	adc	r21, r21
  f4:	66 1f       	adc	r22, r22
  f6:	77 1f       	adc	r23, r23
  f8:	44 0f       	add	r20, r20
  fa:	55 1f       	adc	r21, r21
  fc:	66 1f       	adc	r22, r22
  fe:	77 1f       	adc	r23, r23
 100:	84 0f       	add	r24, r20
 102:	95 1f       	adc	r25, r21
 104:	a6 1f       	adc	r26, r22
 106:	b7 1f       	adc	r27, r23
 108:	89 2f       	mov	r24, r25
 10a:	9a 2f       	mov	r25, r26
 10c:	ab 2f       	mov	r26, r27
 10e:	bb 27       	eor	r27, r27
}
 110:	08 95       	ret

00000112 <adc_get_temperature>:

uint16_t adc_get_temperature(void) {
	uint32_t adcValue = 0;
	
	/* Enable ADC3 as single ended input */
	ADMUX = (ADMUX & ADC_MUX_MASK) | ADC_MUX_TEMPERATURE;
 112:	87 b1       	in	r24, 0x07	; 7
 114:	80 7f       	andi	r24, 0xF0	; 240
 116:	83 60       	ori	r24, 0x03	; 3
 118:	87 b9       	out	0x07, r24	; 7
	
	/* Enable input buffer for ADC3 */
	DIDR0 &= ~(1 << ADC_TEMPERATURE);
 11a:	a3 98       	cbi	0x14, 3	; 20
	
	/* Start the ADC */
	ADCSRA |= (1 << ADSC);
 11c:	36 9a       	sbi	0x06, 6	; 6
	
	/* Wait for completion of conversion */
	while ( ADCSRA & (1 << ADSC) );
 11e:	36 99       	sbic	0x06, 6	; 6
 120:	fe cf       	rjmp	.-4      	; 0x11e <adc_get_temperature+0xc>
	
	/* Read and store ADC */
	adcValue = ADCH;
 122:	85 b1       	in	r24, 0x05	; 5
	
	/* Disable input buffer for ADC3 */
	DIDR0 |= (1 << ADC_TEMPERATURE);
 124:	a3 9a       	sbi	0x14, 3	; 20
	
	/* Wait for completion of conversion */
	while ( ADCSRA & (1 << ADSC) );
	
	/* Read and store ADC */
	adcValue = ADCH;
 126:	90 e0       	ldi	r25, 0x00	; 0
 128:	a0 e0       	ldi	r26, 0x00	; 0
 12a:	b0 e0       	ldi	r27, 0x00	; 0
	
	/* Disable input buffer for ADC3 */
	DIDR0 |= (1 << ADC_TEMPERATURE);
	
	/* Calculate and return temperature */
	return (uint16_t)(adcValue * 5000 / 256);
 12c:	88 0f       	add	r24, r24
 12e:	99 1f       	adc	r25, r25
 130:	aa 1f       	adc	r26, r26
 132:	bb 1f       	adc	r27, r27
 134:	88 0f       	add	r24, r24
 136:	99 1f       	adc	r25, r25
 138:	aa 1f       	adc	r26, r26
 13a:	bb 1f       	adc	r27, r27
 13c:	88 0f       	add	r24, r24
 13e:	99 1f       	adc	r25, r25
 140:	aa 1f       	adc	r26, r26
 142:	bb 1f       	adc	r27, r27
 144:	ac 01       	movw	r20, r24
 146:	bd 01       	movw	r22, r26
 148:	44 0f       	add	r20, r20
 14a:	55 1f       	adc	r21, r21
 14c:	66 1f       	adc	r22, r22
 14e:	77 1f       	adc	r23, r23
 150:	44 0f       	add	r20, r20
 152:	55 1f       	adc	r21, r21
 154:	66 1f       	adc	r22, r22
 156:	77 1f       	adc	r23, r23
 158:	84 0f       	add	r24, r20
 15a:	95 1f       	adc	r25, r21
 15c:	a6 1f       	adc	r26, r22
 15e:	b7 1f       	adc	r27, r23
 160:	ac 01       	movw	r20, r24
 162:	bd 01       	movw	r22, r26
 164:	44 0f       	add	r20, r20
 166:	55 1f       	adc	r21, r21
 168:	66 1f       	adc	r22, r22
 16a:	77 1f       	adc	r23, r23
 16c:	44 0f       	add	r20, r20
 16e:	55 1f       	adc	r21, r21
 170:	66 1f       	adc	r22, r22
 172:	77 1f       	adc	r23, r23
 174:	84 0f       	add	r24, r20
 176:	95 1f       	adc	r25, r21
 178:	a6 1f       	adc	r26, r22
 17a:	b7 1f       	adc	r27, r23
 17c:	ac 01       	movw	r20, r24
 17e:	bd 01       	movw	r22, r26
 180:	44 0f       	add	r20, r20
 182:	55 1f       	adc	r21, r21
 184:	66 1f       	adc	r22, r22
 186:	77 1f       	adc	r23, r23
 188:	44 0f       	add	r20, r20
 18a:	55 1f       	adc	r21, r21
 18c:	66 1f       	adc	r22, r22
 18e:	77 1f       	adc	r23, r23
 190:	84 0f       	add	r24, r20
 192:	95 1f       	adc	r25, r21
 194:	a6 1f       	adc	r26, r22
 196:	b7 1f       	adc	r27, r23
 198:	ac 01       	movw	r20, r24
 19a:	bd 01       	movw	r22, r26
 19c:	44 0f       	add	r20, r20
 19e:	55 1f       	adc	r21, r21
 1a0:	66 1f       	adc	r22, r22
 1a2:	77 1f       	adc	r23, r23
 1a4:	44 0f       	add	r20, r20
 1a6:	55 1f       	adc	r21, r21
 1a8:	66 1f       	adc	r22, r22
 1aa:	77 1f       	adc	r23, r23
 1ac:	84 0f       	add	r24, r20
 1ae:	95 1f       	adc	r25, r21
 1b0:	a6 1f       	adc	r26, r22
 1b2:	b7 1f       	adc	r27, r23
 1b4:	89 2f       	mov	r24, r25
 1b6:	9a 2f       	mov	r25, r26
 1b8:	ab 2f       	mov	r26, r27
 1ba:	bb 27       	eor	r27, r27
 1bc:	08 95       	ret

000001be <hyst_check>:


int hyst_check(uint16_t value,
               uint16_t previous,
               struct Threshold hystTable[],
               uint8_t size) {
 1be:	cf 93       	push	r28
 1c0:	df 93       	push	r29
 1c2:	dc 01       	movw	r26, r24
    int i;
    int state = NO_STATE_CHANGE;

    if ( value >= previous ) {
 1c4:	86 17       	cp	r24, r22
 1c6:	97 07       	cpc	r25, r23
 1c8:	00 f1       	brcs	.+64     	; 0x20a <hyst_check+0x4c>
        for (i=0; i < size; i++) {
 1ca:	22 23       	and	r18, r18
 1cc:	09 f4       	brne	.+2      	; 0x1d0 <hyst_check+0x12>
 1ce:	3f c0       	rjmp	.+126    	; 0x24e <hyst_check+0x90>
 1d0:	fa 01       	movw	r30, r20
 1d2:	35 96       	adiw	r30, 0x05	; 5
 1d4:	82 2f       	mov	r24, r18
 1d6:	90 e0       	ldi	r25, 0x00	; 0
 1d8:	82 0f       	add	r24, r18
 1da:	91 1d       	adc	r25, r1
 1dc:	82 0f       	add	r24, r18
 1de:	91 1d       	adc	r25, r1
 1e0:	88 0f       	add	r24, r24
 1e2:	99 1f       	adc	r25, r25
 1e4:	05 96       	adiw	r24, 0x05	; 5
 1e6:	48 0f       	add	r20, r24
 1e8:	59 1f       	adc	r21, r25
 1ea:	8f ef       	ldi	r24, 0xFF	; 255
 1ec:	9f ef       	ldi	r25, 0xFF	; 255
 1ee:	ef 01       	movw	r28, r30
 1f0:	23 97       	sbiw	r28, 0x03	; 3
            if ( value >= hystTable[i].upper ) {
 1f2:	28 81       	ld	r18, Y
 1f4:	39 81       	ldd	r19, Y+1	; 0x01
 1f6:	a2 17       	cp	r26, r18
 1f8:	b3 07       	cpc	r27, r19
 1fa:	10 f0       	brcs	.+4      	; 0x200 <hyst_check+0x42>
                state = hystTable[i].ustate;
 1fc:	80 81       	ld	r24, Z
 1fe:	90 e0       	ldi	r25, 0x00	; 0
 200:	36 96       	adiw	r30, 0x06	; 6
               uint8_t size) {
    int i;
    int state = NO_STATE_CHANGE;

    if ( value >= previous ) {
        for (i=0; i < size; i++) {
 202:	e4 17       	cp	r30, r20
 204:	f5 07       	cpc	r31, r21
 206:	99 f7       	brne	.-26     	; 0x1ee <hyst_check+0x30>
 208:	27 c0       	rjmp	.+78     	; 0x258 <hyst_check+0x9a>
            if ( value >= hystTable[i].upper ) {
                state = hystTable[i].ustate;
            }
        }
    } else {
        for (i=(size-1); i >= 0; i--) {
 20a:	82 2f       	mov	r24, r18
 20c:	90 e0       	ldi	r25, 0x00	; 0
 20e:	01 97       	sbiw	r24, 0x01	; 1
 210:	0a f1       	brmi	.+66     	; 0x254 <hyst_check+0x96>
 212:	e2 2f       	mov	r30, r18
 214:	f0 e0       	ldi	r31, 0x00	; 0
 216:	e2 0f       	add	r30, r18
 218:	f1 1d       	adc	r31, r1
 21a:	e2 0f       	add	r30, r18
 21c:	f1 1d       	adc	r31, r1
 21e:	ee 0f       	add	r30, r30
 220:	ff 1f       	adc	r31, r31
 222:	32 97       	sbiw	r30, 0x02	; 2
 224:	e4 0f       	add	r30, r20
 226:	f5 1f       	adc	r31, r21
 228:	42 50       	subi	r20, 0x02	; 2
 22a:	51 09       	sbc	r21, r1
 22c:	8f ef       	ldi	r24, 0xFF	; 255
 22e:	9f ef       	ldi	r25, 0xFF	; 255
 230:	ef 01       	movw	r28, r30
 232:	24 97       	sbiw	r28, 0x04	; 4
            if ( value <= hystTable[i].lower ) {
 234:	28 81       	ld	r18, Y
 236:	39 81       	ldd	r19, Y+1	; 0x01
 238:	2a 17       	cp	r18, r26
 23a:	3b 07       	cpc	r19, r27
 23c:	18 f0       	brcs	.+6      	; 0x244 <hyst_check+0x86>
                state = hystTable[i].lstate;
 23e:	90 81       	ld	r25, Z
 240:	89 2f       	mov	r24, r25
 242:	90 e0       	ldi	r25, 0x00	; 0
 244:	36 97       	sbiw	r30, 0x06	; 6
            if ( value >= hystTable[i].upper ) {
                state = hystTable[i].ustate;
            }
        }
    } else {
        for (i=(size-1); i >= 0; i--) {
 246:	e4 17       	cp	r30, r20
 248:	f5 07       	cpc	r31, r21
 24a:	91 f7       	brne	.-28     	; 0x230 <hyst_check+0x72>
 24c:	05 c0       	rjmp	.+10     	; 0x258 <hyst_check+0x9a>
               uint8_t size) {
    int i;
    int state = NO_STATE_CHANGE;

    if ( value >= previous ) {
        for (i=0; i < size; i++) {
 24e:	8f ef       	ldi	r24, 0xFF	; 255
 250:	9f ef       	ldi	r25, 0xFF	; 255
 252:	02 c0       	rjmp	.+4      	; 0x258 <hyst_check+0x9a>
int hyst_check(uint16_t value,
               uint16_t previous,
               struct Threshold hystTable[],
               uint8_t size) {
    int i;
    int state = NO_STATE_CHANGE;
 254:	8f ef       	ldi	r24, 0xFF	; 255
 256:	9f ef       	ldi	r25, 0xFF	; 255
            }
        }
    }

    return state;
 258:	df 91       	pop	r29
 25a:	cf 91       	pop	r28
 25c:	08 95       	ret

0000025e <led_set_luminance>:
volatile uint8_t g_luminance = 0;
volatile uint8_t g_luminanceLimit = 10;


int led_set_luminance(uint8_t index) {
	if ( index >= LED_STEPS ) {
 25e:	8b 30       	cpi	r24, 0x0B	; 11
 260:	58 f4       	brcc	.+22     	; 0x278 <__stack+0x19>
		return -1;
	}
	
	g_luminance = index;
 262:	80 93 9c 00 	sts	0x009C, r24	; 0x80009c <__data_end>
	pwm_set_duty(c_lightness[index]);
 266:	e8 2f       	mov	r30, r24
 268:	f0 e0       	ldi	r31, 0x00	; 0
 26a:	eb 57       	subi	r30, 0x7B	; 123
 26c:	ff 4f       	sbci	r31, 0xFF	; 255
 26e:	80 81       	ld	r24, Z
 270:	99 d1       	rcall	.+818    	; 0x5a4 <pwm_set_duty>
	return 0;
 272:	80 e0       	ldi	r24, 0x00	; 0
 274:	90 e0       	ldi	r25, 0x00	; 0
 276:	08 95       	ret
volatile uint8_t g_luminanceLimit = 10;


int led_set_luminance(uint8_t index) {
	if ( index >= LED_STEPS ) {
		return -1;
 278:	8f ef       	ldi	r24, 0xFF	; 255
 27a:	9f ef       	ldi	r25, 0xFF	; 255
	}
	
	g_luminance = index;
	pwm_set_duty(c_lightness[index]);
	return 0;
}
 27c:	08 95       	ret

0000027e <led_set_luminance_limit>:

int led_set_luminance_limit(uint8_t index) {
	if ( index >= LED_STEPS ) {
 27e:	8b 30       	cpi	r24, 0x0B	; 11
 280:	28 f4       	brcc	.+10     	; 0x28c <led_set_luminance_limit+0xe>
		return -1;
	}
	g_luminanceLimit = index;
 282:	80 93 84 00 	sts	0x0084, r24	; 0x800084 <g_luminanceLimit>
	return 0;
 286:	80 e0       	ldi	r24, 0x00	; 0
 288:	90 e0       	ldi	r25, 0x00	; 0
 28a:	08 95       	ret
	return 0;
}

int led_set_luminance_limit(uint8_t index) {
	if ( index >= LED_STEPS ) {
		return -1;
 28c:	8f ef       	ldi	r24, 0xFF	; 255
 28e:	9f ef       	ldi	r25, 0xFF	; 255
	}
	g_luminanceLimit = index;
	return 0;
}
 290:	08 95       	ret

00000292 <led_increase>:

void led_increase(void) {
	int index = g_luminance;
 292:	80 91 9c 00 	lds	r24, 0x009C	; 0x80009c <__data_end>
 296:	90 e0       	ldi	r25, 0x00	; 0
	
	if ( ++index > g_luminanceLimit ) {
 298:	01 96       	adiw	r24, 0x01	; 1
 29a:	20 91 84 00 	lds	r18, 0x0084	; 0x800084 <g_luminanceLimit>
 29e:	30 e0       	ldi	r19, 0x00	; 0
 2a0:	28 17       	cp	r18, r24
 2a2:	39 07       	cpc	r19, r25
 2a4:	14 f4       	brge	.+4      	; 0x2aa <led_increase+0x18>
		index = g_luminanceLimit;
 2a6:	80 91 84 00 	lds	r24, 0x0084	; 0x800084 <g_luminanceLimit>
	}
	
	led_set_luminance(index);
 2aa:	d9 df       	rcall	.-78     	; 0x25e <led_set_luminance>
 2ac:	08 95       	ret

000002ae <led_decrease>:
}

void led_decrease(void) {
	int index = g_luminance;
 2ae:	80 91 9c 00 	lds	r24, 0x009C	; 0x80009c <__data_end>
 2b2:	90 e0       	ldi	r25, 0x00	; 0
 2b4:	01 97       	sbiw	r24, 0x01	; 1
 2b6:	12 f4       	brpl	.+4      	; 0x2bc <led_decrease+0xe>
 2b8:	80 e0       	ldi	r24, 0x00	; 0
 2ba:	90 e0       	ldi	r25, 0x00	; 0
	
	if ( --index < 0 ) {
		index = 0;
	}
	
	led_set_luminance(index);
 2bc:	d0 df       	rcall	.-96     	; 0x25e <led_set_luminance>
 2be:	08 95       	ret

000002c0 <led_update>:
}

void led_update(void) {
	if ( g_luminance > g_luminanceLimit ) {
 2c0:	90 91 9c 00 	lds	r25, 0x009C	; 0x80009c <__data_end>
 2c4:	80 91 84 00 	lds	r24, 0x0084	; 0x800084 <g_luminanceLimit>
 2c8:	89 17       	cp	r24, r25
 2ca:	18 f4       	brcc	.+6      	; 0x2d2 <led_update+0x12>
		led_set_luminance(g_luminanceLimit);
 2cc:	80 91 84 00 	lds	r24, 0x0084	; 0x800084 <g_luminanceLimit>
 2d0:	c6 df       	rcall	.-116    	; 0x25e <led_set_luminance>
 2d2:	08 95       	ret

000002d4 <log_push>:

	/* Write a null char into the first log byte */
	eeprom_update_byte((uint8_t *)LOG_OFFSET, '\0');
}

int log_push(const char* string) {
 2d4:	ef 92       	push	r14
 2d6:	ff 92       	push	r15
 2d8:	0f 93       	push	r16
 2da:	1f 93       	push	r17
 2dc:	cf 93       	push	r28
 2de:	df 93       	push	r29
 2e0:	8c 01       	movw	r16, r24
	size_t size;
	void *addr;

	size = strlen(string);
 2e2:	fc 01       	movw	r30, r24
 2e4:	01 90       	ld	r0, Z+
 2e6:	00 20       	and	r0, r0
 2e8:	e9 f7       	brne	.-6      	; 0x2e4 <log_push+0x10>
 2ea:	31 97       	sbiw	r30, 0x01	; 1
 2ec:	ef 01       	movw	r28, r30
 2ee:	c8 1b       	sub	r28, r24
 2f0:	d9 0b       	sbc	r29, r25
	addr = (void *)eeprom_read_word(LOG_P);
 2f2:	80 e0       	ldi	r24, 0x00	; 0
 2f4:	90 e0       	ldi	r25, 0x00	; 0
 2f6:	51 d5       	rcall	.+2722   	; 0xd9a <eeprom_read_word>

	if ( (addr + size) > (void *)(LOG_SIZE - LOG_OFFSET) ) {
 2f8:	7c 01       	movw	r14, r24
 2fa:	ec 0e       	add	r14, r28
 2fc:	fd 1e       	adc	r15, r29
 2fe:	2f ef       	ldi	r18, 0xFF	; 255
 300:	e2 16       	cp	r14, r18
 302:	21 e0       	ldi	r18, 0x01	; 1
 304:	f2 06       	cpc	r15, r18
 306:	70 f4       	brcc	.+28     	; 0x324 <log_push+0x50>
		return -1;
	}

	eeprom_update_block(string, addr, size);
 308:	ae 01       	movw	r20, r28
 30a:	bc 01       	movw	r22, r24
 30c:	c8 01       	movw	r24, r16
 30e:	4a d5       	rcall	.+2708   	; 0xda4 <eeprom_update_block>
	addr += size;
	eeprom_update_byte(addr, '\0');
 310:	60 e0       	ldi	r22, 0x00	; 0
 312:	c7 01       	movw	r24, r14
 314:	56 d5       	rcall	.+2732   	; 0xdc2 <eeprom_update_byte>
	eeprom_update_word(LOG_P, (uint16_t)addr);
 316:	b7 01       	movw	r22, r14
 318:	80 e0       	ldi	r24, 0x00	; 0
 31a:	90 e0       	ldi	r25, 0x00	; 0
 31c:	64 d5       	rcall	.+2760   	; 0xde6 <eeprom_update_word>
	return 0;
 31e:	80 e0       	ldi	r24, 0x00	; 0
 320:	90 e0       	ldi	r25, 0x00	; 0
 322:	02 c0       	rjmp	.+4      	; 0x328 <log_push+0x54>

	size = strlen(string);
	addr = (void *)eeprom_read_word(LOG_P);

	if ( (addr + size) > (void *)(LOG_SIZE - LOG_OFFSET) ) {
		return -1;
 324:	8f ef       	ldi	r24, 0xFF	; 255
 326:	9f ef       	ldi	r25, 0xFF	; 255
	eeprom_update_block(string, addr, size);
	addr += size;
	eeprom_update_byte(addr, '\0');
	eeprom_update_word(LOG_P, (uint16_t)addr);
	return 0;
}
 328:	df 91       	pop	r29
 32a:	cf 91       	pop	r28
 32c:	1f 91       	pop	r17
 32e:	0f 91       	pop	r16
 330:	ff 90       	pop	r15
 332:	ef 90       	pop	r14
 334:	08 95       	ret

00000336 <main>:
#include "log.h"



#if 1
int main(void) {
 336:	cf 93       	push	r28
 338:	df 93       	push	r29
 33a:	cd b7       	in	r28, 0x3d	; 61
 33c:	de b7       	in	r29, 0x3e	; 62
 33e:	ce 58       	subi	r28, 0x8E	; 142
 340:	d1 09       	sbc	r29, r1
 342:	0f b6       	in	r0, 0x3f	; 63
 344:	f8 94       	cli
 346:	de bf       	out	0x3e, r29	; 62
 348:	0f be       	out	0x3f, r0	; 63
 34a:	cd bf       	out	0x3d, r28	; 61
	
	volatile enum {NORMAL, STROBE} mode;
	volatile enum bool emergency;
	
	
	mode = NORMAL;
 34c:	c3 57       	subi	r28, 0x73	; 115
 34e:	df 4f       	sbci	r29, 0xFF	; 255
 350:	18 82       	st	Y, r1
 352:	cd 58       	subi	r28, 0x8D	; 141
 354:	d0 40       	sbci	r29, 0x00	; 0
	emergency = FALSE;
 356:	c2 57       	subi	r28, 0x72	; 114
 358:	df 4f       	sbci	r29, 0xFF	; 255
 35a:	18 82       	st	Y, r1
 35c:	ce 58       	subi	r28, 0x8E	; 142
 35e:	d0 40       	sbci	r29, 0x00	; 0
	time_init();
 360:	3f d1       	rcall	.+638    	; 0x5e0 <time_init>
	pwm_init();
 362:	17 d1       	rcall	.+558    	; 0x592 <pwm_init>
	adc_init();
 364:	78 de       	rcall	.-784    	; 0x56 <adc_init>
	sei();
 366:	78 94       	sei
	int bufferCounter = 0;
	int i;

	int state = STATE_100;
	int tempState = STATE_100;
	int voltState = STATE_100;
 368:	0f 2e       	mov	r0, r31
 36a:	f3 e0       	ldi	r31, 0x03	; 3
 36c:	af 2e       	mov	r10, r31
 36e:	b1 2c       	mov	r11, r1
 370:	f0 2d       	mov	r31, r0
	int32_t voltAvg = -1;
	int bufferCounter = 0;
	int i;

	int state = STATE_100;
	int tempState = STATE_100;
 372:	0f 2e       	mov	r0, r31
 374:	f3 e0       	ldi	r31, 0x03	; 3
 376:	2f 2e       	mov	r2, r31
 378:	31 2c       	mov	r3, r1
 37a:	f0 2d       	mov	r31, r0
	
	int16_t temp[BUFFER_SIZE];
	int16_t volt[BUFFER_SIZE];
	int32_t tempAvg = -1;
	int32_t voltAvg = -1;
	int bufferCounter = 0;
 37c:	e1 2c       	mov	r14, r1
 37e:	f1 2c       	mov	r15, r1
 380:	0f 2e       	mov	r0, r31
 382:	f5 e6       	ldi	r31, 0x65	; 101
 384:	cf 2e       	mov	r12, r31
 386:	d1 2c       	mov	r13, r1
 388:	f0 2d       	mov	r31, r0
 38a:	cc 0e       	add	r12, r28
 38c:	dd 1e       	adc	r13, r29
 38e:	24 e1       	ldi	r18, 0x14	; 20
 390:	c2 0e       	add	r12, r18
 392:	d1 1c       	adc	r13, r1
					case STATE_100:
						led_set_luminance_limit(10);
						break;
				}
			
				sprintf(logstr, "t:%d v:%d\n", (int)tempAvg, (int)voltAvg);
 394:	ce 01       	movw	r24, r28
 396:	01 96       	adiw	r24, 0x01	; 1
 398:	4c 01       	movw	r8, r24
    while (1) {
		
		/*
		 * NORMAL MODE
		*/
		if ( mode == NORMAL ) {
 39a:	c3 57       	subi	r28, 0x73	; 115
 39c:	df 4f       	sbci	r29, 0xFF	; 255
 39e:	88 81       	ld	r24, Y
 3a0:	cd 58       	subi	r28, 0x8D	; 141
 3a2:	d0 40       	sbci	r29, 0x00	; 0
 3a4:	81 11       	cpse	r24, r1
 3a6:	37 c0       	rjmp	.+110    	; 0x416 <__LOCK_REGION_LENGTH__+0x16>
			
			/* ======================== */
			if ( UP == PRESSED || DOWN == PRESSED ) {
 3a8:	b0 99       	sbic	0x16, 0	; 22
 3aa:	02 c0       	rjmp	.+4      	; 0x3b0 <main+0x7a>
 3ac:	b1 9b       	sbis	0x16, 1	; 22
 3ae:	44 c0       	rjmp	.+136    	; 0x438 <__LOCK_REGION_LENGTH__+0x38>
				uint32_t start = time_get_millis();
 3b0:	5c d1       	rcall	.+696    	; 0x66a <time_get_millis>
 3b2:	2b 01       	movw	r4, r22
 3b4:	3c 01       	movw	r6, r24
				
				time_delay_millis(DEBOUNCE_DELAY);
 3b6:	68 e7       	ldi	r22, 0x78	; 120
 3b8:	70 e0       	ldi	r23, 0x00	; 0
 3ba:	80 e0       	ldi	r24, 0x00	; 0
 3bc:	90 e0       	ldi	r25, 0x00	; 0
 3be:	8b d1       	rcall	.+790    	; 0x6d6 <time_delay_millis>
				
				if ( UP == PRESSED && DOWN == PRESSED ) {
 3c0:	b0 9b       	sbis	0x16, 0	; 22
 3c2:	0a c0       	rjmp	.+20     	; 0x3d8 <main+0xa2>
 3c4:	b1 9b       	sbis	0x16, 1	; 22
 3c6:	08 c0       	rjmp	.+16     	; 0x3d8 <main+0xa2>
					mode = STROBE;
 3c8:	91 e0       	ldi	r25, 0x01	; 1
 3ca:	c3 57       	subi	r28, 0x73	; 115
 3cc:	df 4f       	sbci	r29, 0xFF	; 255
 3ce:	98 83       	st	Y, r25
 3d0:	cd 58       	subi	r28, 0x8D	; 141
 3d2:	d0 40       	sbci	r29, 0x00	; 0
					pwm_strobe_on();
 3d4:	e9 d0       	rcall	.+466    	; 0x5a8 <pwm_strobe_on>
 3d6:	30 c0       	rjmp	.+96     	; 0x438 <__LOCK_REGION_LENGTH__+0x38>
				}
					
				else if ( UP == PRESSED ) {
 3d8:	b0 99       	sbic	0x16, 0	; 22
 3da:	14 c0       	rjmp	.+40     	; 0x404 <__LOCK_REGION_LENGTH__+0x4>
 3dc:	16 c0       	rjmp	.+44     	; 0x40a <__LOCK_REGION_LENGTH__+0xa>
					enum bool emergencyPressed = FALSE;
					while ( UP == PRESSED ) {
						if ( time_get_millis() - start > EMERGENCY_DELAY ) {
 3de:	45 d1       	rcall	.+650    	; 0x66a <time_get_millis>
 3e0:	dc 01       	movw	r26, r24
 3e2:	cb 01       	movw	r24, r22
 3e4:	84 19       	sub	r24, r4
 3e6:	95 09       	sbc	r25, r5
 3e8:	a6 09       	sbc	r26, r6
 3ea:	b7 09       	sbc	r27, r7
 3ec:	89 35       	cpi	r24, 0x59	; 89
 3ee:	9b 41       	sbci	r25, 0x1B	; 27
 3f0:	a1 05       	cpc	r26, r1
 3f2:	b1 05       	cpc	r27, r1
 3f4:	38 f0       	brcs	.+14     	; 0x404 <__LOCK_REGION_LENGTH__+0x4>
							emergencyPressed = TRUE;
							emergency = TRUE;
 3f6:	81 e0       	ldi	r24, 0x01	; 1
 3f8:	c2 57       	subi	r28, 0x72	; 114
 3fa:	df 4f       	sbci	r29, 0xFF	; 255
 3fc:	88 83       	st	Y, r24
 3fe:	ce 58       	subi	r28, 0x8E	; 142
 400:	d0 40       	sbci	r29, 0x00	; 0
 402:	1a c0       	rjmp	.+52     	; 0x438 <__LOCK_REGION_LENGTH__+0x38>
					pwm_strobe_on();
				}
					
				else if ( UP == PRESSED ) {
					enum bool emergencyPressed = FALSE;
					while ( UP == PRESSED ) {
 404:	b0 99       	sbic	0x16, 0	; 22
 406:	eb cf       	rjmp	.-42     	; 0x3de <main+0xa8>
 408:	c2 c0       	rjmp	.+388    	; 0x58e <__LOCK_REGION_LENGTH__+0x18e>
					if ( !emergencyPressed ) {
						led_increase();
					}
				}
					
				else if ( DOWN == PRESSED ) {
 40a:	b1 9b       	sbis	0x16, 1	; 22
 40c:	15 c0       	rjmp	.+42     	; 0x438 <__LOCK_REGION_LENGTH__+0x38>
					while ( DOWN == PRESSED  );
 40e:	b1 99       	sbic	0x16, 1	; 22
 410:	fe cf       	rjmp	.-4      	; 0x40e <__LOCK_REGION_LENGTH__+0xe>
					led_decrease();
 412:	4d df       	rcall	.-358    	; 0x2ae <led_decrease>
 414:	11 c0       	rjmp	.+34     	; 0x438 <__LOCK_REGION_LENGTH__+0x38>
			
			
		/*
		 * STROBE MODE
		*/	
		else if ( mode == STROBE ) {
 416:	c3 57       	subi	r28, 0x73	; 115
 418:	df 4f       	sbci	r29, 0xFF	; 255
 41a:	88 81       	ld	r24, Y
 41c:	cd 58       	subi	r28, 0x8D	; 141
 41e:	d0 40       	sbci	r29, 0x00	; 0
 420:	81 30       	cpi	r24, 0x01	; 1
 422:	51 f4       	brne	.+20     	; 0x438 <__LOCK_REGION_LENGTH__+0x38>
			if ( UP == RELEASED && DOWN == RELEASED ) {
 424:	b0 99       	sbic	0x16, 0	; 22
 426:	08 c0       	rjmp	.+16     	; 0x438 <__LOCK_REGION_LENGTH__+0x38>
 428:	b1 99       	sbic	0x16, 1	; 22
 42a:	06 c0       	rjmp	.+12     	; 0x438 <__LOCK_REGION_LENGTH__+0x38>
				pwm_strobe_off();
 42c:	cf d0       	rcall	.+414    	; 0x5cc <pwm_strobe_off>
				mode = NORMAL;
 42e:	c3 57       	subi	r28, 0x73	; 115
 430:	df 4f       	sbci	r29, 0xFF	; 255
 432:	18 82       	st	Y, r1
 434:	cd 58       	subi	r28, 0x8D	; 141
 436:	d0 40       	sbci	r29, 0x00	; 0
			* ======== ADC Readings =========
			* ===============================
		*/
		
		
		if ( emergency == FALSE ) {
 438:	c2 57       	subi	r28, 0x72	; 114
 43a:	df 4f       	sbci	r29, 0xFF	; 255
 43c:	88 81       	ld	r24, Y
 43e:	ce 58       	subi	r28, 0x8E	; 142
 440:	d0 40       	sbci	r29, 0x00	; 0
 442:	81 11       	cpse	r24, r1
 444:	a0 c0       	rjmp	.+320    	; 0x586 <__LOCK_REGION_LENGTH__+0x186>
			 * ****** Input Averaging *********
			 * ################################
			 */

			/* Store the adc readings in a buffer */
			temp[bufferCounter] = adc_get_temperature();
 446:	65 de       	rcall	.-822    	; 0x112 <adc_get_temperature>
 448:	87 01       	movw	r16, r14
 44a:	00 0f       	add	r16, r16
 44c:	11 1f       	adc	r17, r17
 44e:	e5 e6       	ldi	r30, 0x65	; 101
 450:	f0 e0       	ldi	r31, 0x00	; 0
 452:	ec 0f       	add	r30, r28
 454:	fd 1f       	adc	r31, r29
 456:	e0 0f       	add	r30, r16
 458:	f1 1f       	adc	r31, r17
 45a:	91 83       	std	Z+1, r25	; 0x01
 45c:	80 83       	st	Z, r24
			volt[bufferCounter] = adc_get_voltage();
 45e:	03 de       	rcall	.-1018   	; 0x66 <adc_get_voltage>
 460:	e9 e7       	ldi	r30, 0x79	; 121
 462:	f0 e0       	ldi	r31, 0x00	; 0
 464:	ec 0f       	add	r30, r28
 466:	fd 1f       	adc	r31, r29
 468:	e0 0f       	add	r30, r16
 46a:	f1 1f       	adc	r31, r17
 46c:	91 83       	std	Z+1, r25	; 0x01
 46e:	80 83       	st	Z, r24
			bufferCounter++;
 470:	9f ef       	ldi	r25, 0xFF	; 255
 472:	e9 1a       	sub	r14, r25
 474:	f9 0a       	sbc	r15, r25
			/*
			* Check if buffer is full
			* If so: computer the average
			*   and reset the buffer counter
			*/
			if (bufferCounter == BUFFER_SIZE) {
 476:	aa e0       	ldi	r26, 0x0A	; 10
 478:	ea 16       	cp	r14, r26
 47a:	f1 04       	cpc	r15, r1
 47c:	09 f0       	breq	.+2      	; 0x480 <__LOCK_REGION_LENGTH__+0x80>
 47e:	85 c0       	rjmp	.+266    	; 0x58a <__LOCK_REGION_LENGTH__+0x18a>
 480:	fe 01       	movw	r30, r28
 482:	eb 59       	subi	r30, 0x9B	; 155
 484:	ff 4f       	sbci	r31, 0xFF	; 255
 486:	de 01       	movw	r26, r28
 488:	a7 58       	subi	r26, 0x87	; 135
 48a:	bf 4f       	sbci	r27, 0xFF	; 255
 48c:	41 2c       	mov	r4, r1
 48e:	51 2c       	mov	r5, r1
 490:	61 2c       	mov	r6, r1
 492:	71 2c       	mov	r7, r1
 494:	40 e0       	ldi	r20, 0x00	; 0
 496:	50 e0       	ldi	r21, 0x00	; 0
 498:	60 e0       	ldi	r22, 0x00	; 0
 49a:	70 e0       	ldi	r23, 0x00	; 0
				tempAvg = 0;
				voltAvg = 0;
				for (i=0; i < BUFFER_SIZE; i++) {
					tempAvg += temp[i];
 49c:	81 91       	ld	r24, Z+
 49e:	91 91       	ld	r25, Z+
 4a0:	8c 01       	movw	r16, r24
 4a2:	99 0f       	add	r25, r25
 4a4:	22 0b       	sbc	r18, r18
 4a6:	33 0b       	sbc	r19, r19
 4a8:	40 0f       	add	r20, r16
 4aa:	51 1f       	adc	r21, r17
 4ac:	62 1f       	adc	r22, r18
 4ae:	73 1f       	adc	r23, r19
					voltAvg += volt[i];
 4b0:	8d 91       	ld	r24, X+
 4b2:	9d 91       	ld	r25, X+
 4b4:	8c 01       	movw	r16, r24
 4b6:	99 0f       	add	r25, r25
 4b8:	22 0b       	sbc	r18, r18
 4ba:	33 0b       	sbc	r19, r19
 4bc:	40 0e       	add	r4, r16
 4be:	51 1e       	adc	r5, r17
 4c0:	62 1e       	adc	r6, r18
 4c2:	73 1e       	adc	r7, r19
			*   and reset the buffer counter
			*/
			if (bufferCounter == BUFFER_SIZE) {
				tempAvg = 0;
				voltAvg = 0;
				for (i=0; i < BUFFER_SIZE; i++) {
 4c4:	ec 15       	cp	r30, r12
 4c6:	fd 05       	cpc	r31, r13
 4c8:	49 f7       	brne	.-46     	; 0x49c <__LOCK_REGION_LENGTH__+0x9c>
					tempAvg += temp[i];
					voltAvg += volt[i];
				}
				tempAvg /= BUFFER_SIZE;
 4ca:	cb 01       	movw	r24, r22
 4cc:	ba 01       	movw	r22, r20
 4ce:	2a e0       	ldi	r18, 0x0A	; 10
 4d0:	30 e0       	ldi	r19, 0x00	; 0
 4d2:	40 e0       	ldi	r20, 0x00	; 0
 4d4:	50 e0       	ldi	r21, 0x00	; 0
 4d6:	21 d1       	rcall	.+578    	; 0x71a <__divmodsi4>
 4d8:	12 2f       	mov	r17, r18
 4da:	03 2f       	mov	r16, r19
				voltAvg /= BUFFER_SIZE;
 4dc:	c3 01       	movw	r24, r6
 4de:	b2 01       	movw	r22, r4
 4e0:	2a e0       	ldi	r18, 0x0A	; 10
 4e2:	30 e0       	ldi	r19, 0x00	; 0
 4e4:	40 e0       	ldi	r20, 0x00	; 0
 4e6:	50 e0       	ldi	r21, 0x00	; 0
 4e8:	18 d1       	rcall	.+560    	; 0x71a <__divmodsi4>
 4ea:	f2 2e       	mov	r15, r18
 4ec:	e3 2e       	mov	r14, r19

				/*
				 * Check if a threshold is reached
				 * If so: switch to the corresponding state
				 */
				newState = hyst_check((int16_t)tempAvg, tempPrev, g_temperatureHystTable, 3);
 4ee:	23 e0       	ldi	r18, 0x03	; 3
 4f0:	40 e6       	ldi	r20, 0x60	; 96
 4f2:	50 e0       	ldi	r21, 0x00	; 0
 4f4:	60 e0       	ldi	r22, 0x00	; 0
 4f6:	70 e0       	ldi	r23, 0x00	; 0
 4f8:	81 2f       	mov	r24, r17
 4fa:	90 2f       	mov	r25, r16
 4fc:	60 de       	rcall	.-832    	; 0x1be <hyst_check>
				if (newState != NO_STATE_CHANGE) {
 4fe:	8f 3f       	cpi	r24, 0xFF	; 255
 500:	bf ef       	ldi	r27, 0xFF	; 255
 502:	9b 07       	cpc	r25, r27
 504:	09 f0       	breq	.+2      	; 0x508 <__LOCK_REGION_LENGTH__+0x108>
					tempState = newState;
 506:	1c 01       	movw	r2, r24
				}

				newState = hyst_check((int16_t)voltAvg, voltPrev, g_voltageHystTable, 3);
 508:	23 e0       	ldi	r18, 0x03	; 3
 50a:	42 e7       	ldi	r20, 0x72	; 114
 50c:	50 e0       	ldi	r21, 0x00	; 0
 50e:	6f ef       	ldi	r22, 0xFF	; 255
 510:	7f e7       	ldi	r23, 0x7F	; 127
 512:	8f 2d       	mov	r24, r15
 514:	9e 2d       	mov	r25, r14
 516:	53 de       	rcall	.-858    	; 0x1be <hyst_check>
				if (newState != NO_STATE_CHANGE) {
 518:	8f 3f       	cpi	r24, 0xFF	; 255
 51a:	2f ef       	ldi	r18, 0xFF	; 255
 51c:	92 07       	cpc	r25, r18
 51e:	09 f0       	breq	.+2      	; 0x522 <__LOCK_REGION_LENGTH__+0x122>
					voltState = newState;
 520:	5c 01       	movw	r10, r24
 522:	c5 01       	movw	r24, r10
 524:	2a 14       	cp	r2, r10
 526:	3b 04       	cpc	r3, r11
 528:	0c f4       	brge	.+2      	; 0x52c <__LOCK_REGION_LENGTH__+0x12c>
 52a:	c1 01       	movw	r24, r2
				} else {
					state = voltState;
				}

				/* Define corresponding actions */
				switch (state) {
 52c:	81 30       	cpi	r24, 0x01	; 1
 52e:	91 05       	cpc	r25, r1
 530:	69 f0       	breq	.+26     	; 0x54c <__LOCK_REGION_LENGTH__+0x14c>
 532:	1c f4       	brge	.+6      	; 0x53a <__LOCK_REGION_LENGTH__+0x13a>
 534:	89 2b       	or	r24, r25
 536:	39 f0       	breq	.+14     	; 0x546 <__LOCK_REGION_LENGTH__+0x146>
 538:	11 c0       	rjmp	.+34     	; 0x55c <__LOCK_REGION_LENGTH__+0x15c>
 53a:	82 30       	cpi	r24, 0x02	; 2
 53c:	91 05       	cpc	r25, r1
 53e:	49 f0       	breq	.+18     	; 0x552 <__LOCK_REGION_LENGTH__+0x152>
 540:	03 97       	sbiw	r24, 0x03	; 3
 542:	51 f0       	breq	.+20     	; 0x558 <__LOCK_REGION_LENGTH__+0x158>
 544:	0b c0       	rjmp	.+22     	; 0x55c <__LOCK_REGION_LENGTH__+0x15c>
					case STATE_OFF:
						led_set_luminance_limit(0);
 546:	80 e0       	ldi	r24, 0x00	; 0
 548:	9a de       	rcall	.-716    	; 0x27e <led_set_luminance_limit>
						break;
 54a:	08 c0       	rjmp	.+16     	; 0x55c <__LOCK_REGION_LENGTH__+0x15c>
					case STATE_50:
						led_set_luminance_limit(5);
 54c:	85 e0       	ldi	r24, 0x05	; 5
 54e:	97 de       	rcall	.-722    	; 0x27e <led_set_luminance_limit>
						break;
 550:	05 c0       	rjmp	.+10     	; 0x55c <__LOCK_REGION_LENGTH__+0x15c>
					case STATE_70:
						led_set_luminance_limit(7);
 552:	87 e0       	ldi	r24, 0x07	; 7
 554:	94 de       	rcall	.-728    	; 0x27e <led_set_luminance_limit>
						break;
 556:	02 c0       	rjmp	.+4      	; 0x55c <__LOCK_REGION_LENGTH__+0x15c>
					case STATE_100:
						led_set_luminance_limit(10);
 558:	8a e0       	ldi	r24, 0x0A	; 10
 55a:	91 de       	rcall	.-734    	; 0x27e <led_set_luminance_limit>
						break;
				}
			
				sprintf(logstr, "t:%d v:%d\n", (int)tempAvg, (int)voltAvg);
 55c:	ef 92       	push	r14
 55e:	ff 92       	push	r15
 560:	0f 93       	push	r16
 562:	1f 93       	push	r17
 564:	a0 e9       	ldi	r26, 0x90	; 144
 566:	b0 e0       	ldi	r27, 0x00	; 0
 568:	bf 93       	push	r27
 56a:	af 93       	push	r26
 56c:	9f 92       	push	r9
 56e:	8f 92       	push	r8
 570:	83 d1       	rcall	.+774    	; 0x878 <sprintf>
				log_push(logstr);
 572:	c4 01       	movw	r24, r8
 574:	af de       	rcall	.-674    	; 0x2d4 <log_push>
 576:	0f b6       	in	r0, 0x3f	; 63
 578:	f8 94       	cli
 57a:	de bf       	out	0x3e, r29	; 62
 57c:	0f be       	out	0x3f, r0	; 63
 57e:	cd bf       	out	0x3d, r28	; 61
					voltAvg += volt[i];
				}
				tempAvg /= BUFFER_SIZE;
				voltAvg /= BUFFER_SIZE;

				bufferCounter = 0;
 580:	e1 2c       	mov	r14, r1
 582:	f1 2c       	mov	r15, r1
 584:	02 c0       	rjmp	.+4      	; 0x58a <__LOCK_REGION_LENGTH__+0x18a>
				log_push(logstr);
				
			} // end: if (bufferCounter == BUFFER_SIZE)
			
		} else {
			led_set_luminance_limit(10);
 586:	8a e0       	ldi	r24, 0x0A	; 10
 588:	7a de       	rcall	.-780    	; 0x27e <led_set_luminance_limit>
		} // end: if ( emergency == FALSE )
		led_update();
 58a:	9a de       	rcall	.-716    	; 0x2c0 <led_update>
    } // end: while (1)
 58c:	06 cf       	rjmp	.-500    	; 0x39a <main+0x64>
							emergency = TRUE;
							break;
						}
					}
					if ( !emergencyPressed ) {
						led_increase();
 58e:	81 de       	rcall	.-766    	; 0x292 <led_increase>
 590:	53 cf       	rjmp	.-346    	; 0x438 <__LOCK_REGION_LENGTH__+0x38>

00000592 <pwm_init>:
volatile uint8_t g_OCR1B;


void pwm_init(void) {
	/* For the OC1B to work the corresponding I/O pin (PB4) must be set as a output. */
	DDRB |= (1 << PB4);
 592:	bc 9a       	sbi	0x17, 4	; 23
	
	/* Setting up the Timer to use OC1B */
	GTCCR =
 594:	80 e6       	ldi	r24, 0x60	; 96
 596:	8c bd       	out	0x2c, r24	; 44
		(0b10 << COM1B0)		// OC1B cleared on compare match. Set when TCNT1 = $00
		| (1 << PWM1B)			// Pulse Width Modulator B Enable
	;
	
	/* Set pwm frequency to ~300Hz */
	TCCR1 = (0b1000 << CS10);	// Set prescaler to	F_CPU/128
 598:	88 e0       	ldi	r24, 0x08	; 8
 59a:	80 bf       	out	0x30, r24	; 48
	OCR1C = _PWM_TOP;			// Set value on which to clear the counter
 59c:	86 ed       	ldi	r24, 0xD6	; 214
 59e:	8d bd       	out	0x2d, r24	; 45
	
	/* Set duty cycle to 0% */
	OCR1B = 214;
 5a0:	8b bd       	out	0x2b, r24	; 43
 5a2:	08 95       	ret

000005a4 <pwm_set_duty>:
}

uint8_t pwm_set_duty(uint8_t duty) {
	OCR1B = duty;
 5a4:	8b bd       	out	0x2b, r24	; 43
}
 5a6:	08 95       	ret

000005a8 <pwm_strobe_on>:

void pwm_strobe_on(void) {
	/* Save previous Timer1 settings to later restore them */
	g_TCCR1 = TCCR1;
 5a8:	80 b7       	in	r24, 0x30	; 48
 5aa:	80 93 a7 00 	sts	0x00A7, r24	; 0x8000a7 <g_TCCR1>
	g_OCR1C = OCR1C;
 5ae:	8d b5       	in	r24, 0x2d	; 45
 5b0:	80 93 a6 00 	sts	0x00A6, r24	; 0x8000a6 <g_OCR1C>
	g_OCR1B = OCR1B;
 5b4:	8b b5       	in	r24, 0x2b	; 43
 5b6:	80 93 a5 00 	sts	0x00A5, r24	; 0x8000a5 <g_OCR1B>
	
	TCCR1 = (TCCR1 & 0b11110000) + 0b1110;	// Set prescaler to	F_CPU/8192
 5ba:	80 b7       	in	r24, 0x30	; 48
 5bc:	80 7f       	andi	r24, 0xF0	; 240
 5be:	82 5f       	subi	r24, 0xF2	; 242
 5c0:	80 bf       	out	0x30, r24	; 48
	
	OCR1C = 125;							// Set value on which to clear the counter, to alter the frequency
 5c2:	8d e7       	ldi	r24, 0x7D	; 125
 5c4:	8d bd       	out	0x2d, r24	; 45
	
	OCR1B = 62;								// Set duty cycle to ~50%
 5c6:	8e e3       	ldi	r24, 0x3E	; 62
 5c8:	8b bd       	out	0x2b, r24	; 43
 5ca:	08 95       	ret

000005cc <pwm_strobe_off>:
}

void pwm_strobe_off(void) {
	/* Reset Timer1 settings saved in pwm_strobe_on() */
	TCCR1 = g_TCCR1;
 5cc:	80 91 a7 00 	lds	r24, 0x00A7	; 0x8000a7 <g_TCCR1>
 5d0:	80 bf       	out	0x30, r24	; 48
	OCR1C = g_OCR1C;
 5d2:	80 91 a6 00 	lds	r24, 0x00A6	; 0x8000a6 <g_OCR1C>
 5d6:	8d bd       	out	0x2d, r24	; 45
	OCR1B = g_OCR1B;
 5d8:	80 91 a5 00 	lds	r24, 0x00A5	; 0x8000a5 <g_OCR1B>
 5dc:	8b bd       	out	0x2b, r24	; 43
 5de:	08 95       	ret

000005e0 <time_init>:
}

void time_delay_micros(uint64_t delay) {
	uint32_t start = time_get_micros();
	while ( time_get_micros() - start < delay);
}
 5e0:	1a bc       	out	0x2a, r1	; 42
 5e2:	82 e0       	ldi	r24, 0x02	; 2
 5e4:	83 bf       	out	0x33, r24	; 51
 5e6:	89 b7       	in	r24, 0x39	; 57
 5e8:	82 60       	ori	r24, 0x02	; 2
 5ea:	89 bf       	out	0x39, r24	; 57
 5ec:	08 95       	ret

000005ee <__vector_5>:
 5ee:	1f 92       	push	r1
 5f0:	0f 92       	push	r0
 5f2:	0f b6       	in	r0, 0x3f	; 63
 5f4:	0f 92       	push	r0
 5f6:	11 24       	eor	r1, r1
 5f8:	2f 93       	push	r18
 5fa:	3f 93       	push	r19
 5fc:	4f 93       	push	r20
 5fe:	5f 93       	push	r21
 600:	6f 93       	push	r22
 602:	7f 93       	push	r23
 604:	8f 93       	push	r24
 606:	9f 93       	push	r25
 608:	af 93       	push	r26
 60a:	20 91 9d 00 	lds	r18, 0x009D	; 0x80009d <timer0OvfCounter>
 60e:	30 91 9e 00 	lds	r19, 0x009E	; 0x80009e <timer0OvfCounter+0x1>
 612:	40 91 9f 00 	lds	r20, 0x009F	; 0x80009f <timer0OvfCounter+0x2>
 616:	50 91 a0 00 	lds	r21, 0x00A0	; 0x8000a0 <timer0OvfCounter+0x3>
 61a:	60 91 a1 00 	lds	r22, 0x00A1	; 0x8000a1 <timer0OvfCounter+0x4>
 61e:	70 91 a2 00 	lds	r23, 0x00A2	; 0x8000a2 <timer0OvfCounter+0x5>
 622:	80 91 a3 00 	lds	r24, 0x00A3	; 0x8000a3 <timer0OvfCounter+0x6>
 626:	90 91 a4 00 	lds	r25, 0x00A4	; 0x8000a4 <timer0OvfCounter+0x7>
 62a:	a1 e0       	ldi	r26, 0x01	; 1
 62c:	f7 d0       	rcall	.+494    	; 0x81c <__adddi3_s8>
 62e:	20 93 9d 00 	sts	0x009D, r18	; 0x80009d <timer0OvfCounter>
 632:	30 93 9e 00 	sts	0x009E, r19	; 0x80009e <timer0OvfCounter+0x1>
 636:	40 93 9f 00 	sts	0x009F, r20	; 0x80009f <timer0OvfCounter+0x2>
 63a:	50 93 a0 00 	sts	0x00A0, r21	; 0x8000a0 <timer0OvfCounter+0x3>
 63e:	60 93 a1 00 	sts	0x00A1, r22	; 0x8000a1 <timer0OvfCounter+0x4>
 642:	70 93 a2 00 	sts	0x00A2, r23	; 0x8000a2 <timer0OvfCounter+0x5>
 646:	80 93 a3 00 	sts	0x00A3, r24	; 0x8000a3 <timer0OvfCounter+0x6>
 64a:	90 93 a4 00 	sts	0x00A4, r25	; 0x8000a4 <timer0OvfCounter+0x7>
 64e:	af 91       	pop	r26
 650:	9f 91       	pop	r25
 652:	8f 91       	pop	r24
 654:	7f 91       	pop	r23
 656:	6f 91       	pop	r22
 658:	5f 91       	pop	r21
 65a:	4f 91       	pop	r20
 65c:	3f 91       	pop	r19
 65e:	2f 91       	pop	r18
 660:	0f 90       	pop	r0
 662:	0f be       	out	0x3f, r0	; 63
 664:	0f 90       	pop	r0
 666:	1f 90       	pop	r1
 668:	18 95       	reti

0000066a <time_get_millis>:
 66a:	af 92       	push	r10
 66c:	bf 92       	push	r11
 66e:	cf 92       	push	r12
 670:	df 92       	push	r13
 672:	ef 92       	push	r14
 674:	ff 92       	push	r15
 676:	0f 93       	push	r16
 678:	1f 93       	push	r17
 67a:	20 91 9d 00 	lds	r18, 0x009D	; 0x80009d <timer0OvfCounter>
 67e:	30 91 9e 00 	lds	r19, 0x009E	; 0x80009e <timer0OvfCounter+0x1>
 682:	40 91 9f 00 	lds	r20, 0x009F	; 0x80009f <timer0OvfCounter+0x2>
 686:	50 91 a0 00 	lds	r21, 0x00A0	; 0x8000a0 <timer0OvfCounter+0x3>
 68a:	60 91 a1 00 	lds	r22, 0x00A1	; 0x8000a1 <timer0OvfCounter+0x4>
 68e:	70 91 a2 00 	lds	r23, 0x00A2	; 0x8000a2 <timer0OvfCounter+0x5>
 692:	80 91 a3 00 	lds	r24, 0x00A3	; 0x8000a3 <timer0OvfCounter+0x6>
 696:	90 91 a4 00 	lds	r25, 0x00A4	; 0x8000a4 <timer0OvfCounter+0x7>
 69a:	08 e0       	ldi	r16, 0x08	; 8
 69c:	a6 d0       	rcall	.+332    	; 0x7ea <__ashldi3>
 69e:	0f 2e       	mov	r0, r31
 6a0:	f8 ee       	ldi	r31, 0xE8	; 232
 6a2:	af 2e       	mov	r10, r31
 6a4:	f0 2d       	mov	r31, r0
 6a6:	0f 2e       	mov	r0, r31
 6a8:	f3 e0       	ldi	r31, 0x03	; 3
 6aa:	bf 2e       	mov	r11, r31
 6ac:	f0 2d       	mov	r31, r0
 6ae:	c1 2c       	mov	r12, r1
 6b0:	d1 2c       	mov	r13, r1
 6b2:	e1 2c       	mov	r14, r1
 6b4:	f1 2c       	mov	r15, r1
 6b6:	00 e0       	ldi	r16, 0x00	; 0
 6b8:	10 e0       	ldi	r17, 0x00	; 0
 6ba:	4d d0       	rcall	.+154    	; 0x756 <__udivdi3>
 6bc:	62 2f       	mov	r22, r18
 6be:	73 2f       	mov	r23, r19
 6c0:	84 2f       	mov	r24, r20
 6c2:	95 2f       	mov	r25, r21
 6c4:	1f 91       	pop	r17
 6c6:	0f 91       	pop	r16
 6c8:	ff 90       	pop	r15
 6ca:	ef 90       	pop	r14
 6cc:	df 90       	pop	r13
 6ce:	cf 90       	pop	r12
 6d0:	bf 90       	pop	r11
 6d2:	af 90       	pop	r10
 6d4:	08 95       	ret

000006d6 <time_delay_millis>:

void time_delay_millis(uint32_t delay) {
 6d6:	8f 92       	push	r8
 6d8:	9f 92       	push	r9
 6da:	af 92       	push	r10
 6dc:	bf 92       	push	r11
 6de:	cf 92       	push	r12
 6e0:	df 92       	push	r13
 6e2:	ef 92       	push	r14
 6e4:	ff 92       	push	r15
 6e6:	4b 01       	movw	r8, r22
 6e8:	5c 01       	movw	r10, r24
	uint32_t start = time_get_millis();
 6ea:	bf df       	rcall	.-130    	; 0x66a <time_get_millis>
 6ec:	6b 01       	movw	r12, r22
 6ee:	7c 01       	movw	r14, r24
	while ( time_get_millis() - start < delay);
 6f0:	bc df       	rcall	.-136    	; 0x66a <time_get_millis>
 6f2:	dc 01       	movw	r26, r24
 6f4:	cb 01       	movw	r24, r22
 6f6:	8c 19       	sub	r24, r12
 6f8:	9d 09       	sbc	r25, r13
 6fa:	ae 09       	sbc	r26, r14
 6fc:	bf 09       	sbc	r27, r15
 6fe:	88 15       	cp	r24, r8
 700:	99 05       	cpc	r25, r9
 702:	aa 05       	cpc	r26, r10
 704:	bb 05       	cpc	r27, r11
 706:	a0 f3       	brcs	.-24     	; 0x6f0 <time_delay_millis+0x1a>
 708:	ff 90       	pop	r15
 70a:	ef 90       	pop	r14
 70c:	df 90       	pop	r13
 70e:	cf 90       	pop	r12
 710:	bf 90       	pop	r11
 712:	af 90       	pop	r10
 714:	9f 90       	pop	r9
 716:	8f 90       	pop	r8
 718:	08 95       	ret

0000071a <__divmodsi4>:
 71a:	05 2e       	mov	r0, r21
 71c:	97 fb       	bst	r25, 7
 71e:	16 f4       	brtc	.+4      	; 0x724 <__divmodsi4+0xa>
 720:	00 94       	com	r0
 722:	0f d0       	rcall	.+30     	; 0x742 <__negsi2>
 724:	57 fd       	sbrc	r21, 7
 726:	05 d0       	rcall	.+10     	; 0x732 <__divmodsi4_neg2>
 728:	85 d0       	rcall	.+266    	; 0x834 <__udivmodsi4>
 72a:	07 fc       	sbrc	r0, 7
 72c:	02 d0       	rcall	.+4      	; 0x732 <__divmodsi4_neg2>
 72e:	46 f4       	brtc	.+16     	; 0x740 <__divmodsi4_exit>
 730:	08 c0       	rjmp	.+16     	; 0x742 <__negsi2>

00000732 <__divmodsi4_neg2>:
 732:	50 95       	com	r21
 734:	40 95       	com	r20
 736:	30 95       	com	r19
 738:	21 95       	neg	r18
 73a:	3f 4f       	sbci	r19, 0xFF	; 255
 73c:	4f 4f       	sbci	r20, 0xFF	; 255
 73e:	5f 4f       	sbci	r21, 0xFF	; 255

00000740 <__divmodsi4_exit>:
 740:	08 95       	ret

00000742 <__negsi2>:
 742:	90 95       	com	r25
 744:	80 95       	com	r24
 746:	70 95       	com	r23
 748:	61 95       	neg	r22
 74a:	7f 4f       	sbci	r23, 0xFF	; 255
 74c:	8f 4f       	sbci	r24, 0xFF	; 255
 74e:	9f 4f       	sbci	r25, 0xFF	; 255
 750:	08 95       	ret

00000752 <__umoddi3>:
 752:	68 94       	set
 754:	01 c0       	rjmp	.+2      	; 0x758 <__udivdi3_umoddi3>

00000756 <__udivdi3>:
 756:	e8 94       	clt

00000758 <__udivdi3_umoddi3>:
 758:	8f 92       	push	r8
 75a:	9f 92       	push	r9
 75c:	cf 93       	push	r28
 75e:	df 93       	push	r29
 760:	05 d0       	rcall	.+10     	; 0x76c <__udivmod64>
 762:	df 91       	pop	r29
 764:	cf 91       	pop	r28
 766:	9f 90       	pop	r9
 768:	8f 90       	pop	r8
 76a:	08 95       	ret

0000076c <__udivmod64>:
 76c:	88 24       	eor	r8, r8
 76e:	99 24       	eor	r9, r9
 770:	f4 01       	movw	r30, r8
 772:	e4 01       	movw	r28, r8
 774:	b0 e4       	ldi	r27, 0x40	; 64
 776:	1b 2e       	mov	r1, r27
 778:	d4 01       	movw	r26, r8
 77a:	9d 15       	cp	r25, r13
 77c:	8e 04       	cpc	r8, r14
 77e:	9f 04       	cpc	r9, r15
 780:	e0 07       	cpc	r30, r16
 782:	f1 07       	cpc	r31, r17
 784:	38 f4       	brcc	.+14     	; 0x794 <__udivmod64+0x28>
 786:	fc 01       	movw	r30, r24
 788:	4b 01       	movw	r8, r22
 78a:	ca 01       	movw	r24, r20
 78c:	b9 01       	movw	r22, r18
 78e:	ad 01       	movw	r20, r26
 790:	9e 01       	movw	r18, r28
 792:	16 94       	lsr	r1
 794:	22 0f       	add	r18, r18
 796:	33 1f       	adc	r19, r19
 798:	44 1f       	adc	r20, r20
 79a:	55 1f       	adc	r21, r21
 79c:	66 1f       	adc	r22, r22
 79e:	77 1f       	adc	r23, r23
 7a0:	88 1f       	adc	r24, r24
 7a2:	99 1f       	adc	r25, r25
 7a4:	88 1c       	adc	r8, r8
 7a6:	99 1c       	adc	r9, r9
 7a8:	ee 1f       	adc	r30, r30
 7aa:	ff 1f       	adc	r31, r31
 7ac:	cc 1f       	adc	r28, r28
 7ae:	dd 1f       	adc	r29, r29
 7b0:	aa 1f       	adc	r26, r26
 7b2:	bb 1f       	adc	r27, r27
 7b4:	8a 14       	cp	r8, r10
 7b6:	9b 04       	cpc	r9, r11
 7b8:	ec 05       	cpc	r30, r12
 7ba:	fd 05       	cpc	r31, r13
 7bc:	ce 05       	cpc	r28, r14
 7be:	df 05       	cpc	r29, r15
 7c0:	a0 07       	cpc	r26, r16
 7c2:	b1 07       	cpc	r27, r17
 7c4:	48 f0       	brcs	.+18     	; 0x7d8 <__udivmod64+0x6c>
 7c6:	8a 18       	sub	r8, r10
 7c8:	9b 08       	sbc	r9, r11
 7ca:	ec 09       	sbc	r30, r12
 7cc:	fd 09       	sbc	r31, r13
 7ce:	ce 09       	sbc	r28, r14
 7d0:	df 09       	sbc	r29, r15
 7d2:	a0 0b       	sbc	r26, r16
 7d4:	b1 0b       	sbc	r27, r17
 7d6:	21 60       	ori	r18, 0x01	; 1
 7d8:	1a 94       	dec	r1
 7da:	e1 f6       	brne	.-72     	; 0x794 <__udivmod64+0x28>
 7dc:	2e f4       	brtc	.+10     	; 0x7e8 <__udivmod64+0x7c>
 7de:	94 01       	movw	r18, r8
 7e0:	af 01       	movw	r20, r30
 7e2:	be 01       	movw	r22, r28
 7e4:	cd 01       	movw	r24, r26
 7e6:	00 0c       	add	r0, r0
 7e8:	08 95       	ret

000007ea <__ashldi3>:
 7ea:	0f 93       	push	r16
 7ec:	08 30       	cpi	r16, 0x08	; 8
 7ee:	90 f0       	brcs	.+36     	; 0x814 <__ashldi3+0x2a>
 7f0:	98 2f       	mov	r25, r24
 7f2:	87 2f       	mov	r24, r23
 7f4:	76 2f       	mov	r23, r22
 7f6:	65 2f       	mov	r22, r21
 7f8:	54 2f       	mov	r21, r20
 7fa:	43 2f       	mov	r20, r19
 7fc:	32 2f       	mov	r19, r18
 7fe:	22 27       	eor	r18, r18
 800:	08 50       	subi	r16, 0x08	; 8
 802:	f4 cf       	rjmp	.-24     	; 0x7ec <__ashldi3+0x2>
 804:	22 0f       	add	r18, r18
 806:	33 1f       	adc	r19, r19
 808:	44 1f       	adc	r20, r20
 80a:	55 1f       	adc	r21, r21
 80c:	66 1f       	adc	r22, r22
 80e:	77 1f       	adc	r23, r23
 810:	88 1f       	adc	r24, r24
 812:	99 1f       	adc	r25, r25
 814:	0a 95       	dec	r16
 816:	b2 f7       	brpl	.-20     	; 0x804 <__ashldi3+0x1a>
 818:	0f 91       	pop	r16
 81a:	08 95       	ret

0000081c <__adddi3_s8>:
 81c:	00 24       	eor	r0, r0
 81e:	a7 fd       	sbrc	r26, 7
 820:	00 94       	com	r0
 822:	2a 0f       	add	r18, r26
 824:	30 1d       	adc	r19, r0
 826:	40 1d       	adc	r20, r0
 828:	50 1d       	adc	r21, r0
 82a:	60 1d       	adc	r22, r0
 82c:	70 1d       	adc	r23, r0
 82e:	80 1d       	adc	r24, r0
 830:	90 1d       	adc	r25, r0
 832:	08 95       	ret

00000834 <__udivmodsi4>:
 834:	a1 e2       	ldi	r26, 0x21	; 33
 836:	1a 2e       	mov	r1, r26
 838:	aa 1b       	sub	r26, r26
 83a:	bb 1b       	sub	r27, r27
 83c:	fd 01       	movw	r30, r26
 83e:	0d c0       	rjmp	.+26     	; 0x85a <__udivmodsi4_ep>

00000840 <__udivmodsi4_loop>:
 840:	aa 1f       	adc	r26, r26
 842:	bb 1f       	adc	r27, r27
 844:	ee 1f       	adc	r30, r30
 846:	ff 1f       	adc	r31, r31
 848:	a2 17       	cp	r26, r18
 84a:	b3 07       	cpc	r27, r19
 84c:	e4 07       	cpc	r30, r20
 84e:	f5 07       	cpc	r31, r21
 850:	20 f0       	brcs	.+8      	; 0x85a <__udivmodsi4_ep>
 852:	a2 1b       	sub	r26, r18
 854:	b3 0b       	sbc	r27, r19
 856:	e4 0b       	sbc	r30, r20
 858:	f5 0b       	sbc	r31, r21

0000085a <__udivmodsi4_ep>:
 85a:	66 1f       	adc	r22, r22
 85c:	77 1f       	adc	r23, r23
 85e:	88 1f       	adc	r24, r24
 860:	99 1f       	adc	r25, r25
 862:	1a 94       	dec	r1
 864:	69 f7       	brne	.-38     	; 0x840 <__udivmodsi4_loop>
 866:	60 95       	com	r22
 868:	70 95       	com	r23
 86a:	80 95       	com	r24
 86c:	90 95       	com	r25
 86e:	9b 01       	movw	r18, r22
 870:	ac 01       	movw	r20, r24
 872:	bd 01       	movw	r22, r26
 874:	cf 01       	movw	r24, r30
 876:	08 95       	ret

00000878 <sprintf>:
 878:	ae e0       	ldi	r26, 0x0E	; 14
 87a:	b0 e0       	ldi	r27, 0x00	; 0
 87c:	e1 e4       	ldi	r30, 0x41	; 65
 87e:	f4 e0       	ldi	r31, 0x04	; 4
 880:	dd c2       	rjmp	.+1466   	; 0xe3c <__prologue_saves__+0x1c>
 882:	0d 89       	ldd	r16, Y+21	; 0x15
 884:	1e 89       	ldd	r17, Y+22	; 0x16
 886:	86 e0       	ldi	r24, 0x06	; 6
 888:	8c 83       	std	Y+4, r24	; 0x04
 88a:	1a 83       	std	Y+2, r17	; 0x02
 88c:	09 83       	std	Y+1, r16	; 0x01
 88e:	8f ef       	ldi	r24, 0xFF	; 255
 890:	9f e7       	ldi	r25, 0x7F	; 127
 892:	9e 83       	std	Y+6, r25	; 0x06
 894:	8d 83       	std	Y+5, r24	; 0x05
 896:	ae 01       	movw	r20, r28
 898:	47 5e       	subi	r20, 0xE7	; 231
 89a:	5f 4f       	sbci	r21, 0xFF	; 255
 89c:	6f 89       	ldd	r22, Y+23	; 0x17
 89e:	78 8d       	ldd	r23, Y+24	; 0x18
 8a0:	ce 01       	movw	r24, r28
 8a2:	01 96       	adiw	r24, 0x01	; 1
 8a4:	09 d0       	rcall	.+18     	; 0x8b8 <vfprintf>
 8a6:	2f 81       	ldd	r18, Y+7	; 0x07
 8a8:	38 85       	ldd	r19, Y+8	; 0x08
 8aa:	f8 01       	movw	r30, r16
 8ac:	e2 0f       	add	r30, r18
 8ae:	f3 1f       	adc	r31, r19
 8b0:	10 82       	st	Z, r1
 8b2:	2e 96       	adiw	r28, 0x0e	; 14
 8b4:	e4 e0       	ldi	r30, 0x04	; 4
 8b6:	de c2       	rjmp	.+1468   	; 0xe74 <__epilogue_restores__+0x1c>

000008b8 <vfprintf>:
 8b8:	ac e0       	ldi	r26, 0x0C	; 12
 8ba:	b0 e0       	ldi	r27, 0x00	; 0
 8bc:	e1 e6       	ldi	r30, 0x61	; 97
 8be:	f4 e0       	ldi	r31, 0x04	; 4
 8c0:	af c2       	rjmp	.+1374   	; 0xe20 <__prologue_saves__>
 8c2:	7c 01       	movw	r14, r24
 8c4:	6b 01       	movw	r12, r22
 8c6:	8a 01       	movw	r16, r20
 8c8:	fc 01       	movw	r30, r24
 8ca:	17 82       	std	Z+7, r1	; 0x07
 8cc:	16 82       	std	Z+6, r1	; 0x06
 8ce:	83 81       	ldd	r24, Z+3	; 0x03
 8d0:	81 ff       	sbrs	r24, 1
 8d2:	b0 c1       	rjmp	.+864    	; 0xc34 <vfprintf+0x37c>
 8d4:	ce 01       	movw	r24, r28
 8d6:	01 96       	adiw	r24, 0x01	; 1
 8d8:	4c 01       	movw	r8, r24
 8da:	f7 01       	movw	r30, r14
 8dc:	93 81       	ldd	r25, Z+3	; 0x03
 8de:	f6 01       	movw	r30, r12
 8e0:	93 fd       	sbrc	r25, 3
 8e2:	85 91       	lpm	r24, Z+
 8e4:	93 ff       	sbrs	r25, 3
 8e6:	81 91       	ld	r24, Z+
 8e8:	6f 01       	movw	r12, r30
 8ea:	88 23       	and	r24, r24
 8ec:	09 f4       	brne	.+2      	; 0x8f0 <vfprintf+0x38>
 8ee:	9e c1       	rjmp	.+828    	; 0xc2c <vfprintf+0x374>
 8f0:	85 32       	cpi	r24, 0x25	; 37
 8f2:	39 f4       	brne	.+14     	; 0x902 <vfprintf+0x4a>
 8f4:	93 fd       	sbrc	r25, 3
 8f6:	85 91       	lpm	r24, Z+
 8f8:	93 ff       	sbrs	r25, 3
 8fa:	81 91       	ld	r24, Z+
 8fc:	6f 01       	movw	r12, r30
 8fe:	85 32       	cpi	r24, 0x25	; 37
 900:	21 f4       	brne	.+8      	; 0x90a <vfprintf+0x52>
 902:	b7 01       	movw	r22, r14
 904:	90 e0       	ldi	r25, 0x00	; 0
 906:	b1 d1       	rcall	.+866    	; 0xc6a <fputc>
 908:	e8 cf       	rjmp	.-48     	; 0x8da <vfprintf+0x22>
 90a:	51 2c       	mov	r5, r1
 90c:	31 2c       	mov	r3, r1
 90e:	20 e0       	ldi	r18, 0x00	; 0
 910:	20 32       	cpi	r18, 0x20	; 32
 912:	a0 f4       	brcc	.+40     	; 0x93c <vfprintf+0x84>
 914:	8b 32       	cpi	r24, 0x2B	; 43
 916:	69 f0       	breq	.+26     	; 0x932 <vfprintf+0x7a>
 918:	30 f4       	brcc	.+12     	; 0x926 <vfprintf+0x6e>
 91a:	80 32       	cpi	r24, 0x20	; 32
 91c:	59 f0       	breq	.+22     	; 0x934 <vfprintf+0x7c>
 91e:	83 32       	cpi	r24, 0x23	; 35
 920:	69 f4       	brne	.+26     	; 0x93c <vfprintf+0x84>
 922:	20 61       	ori	r18, 0x10	; 16
 924:	2c c0       	rjmp	.+88     	; 0x97e <vfprintf+0xc6>
 926:	8d 32       	cpi	r24, 0x2D	; 45
 928:	39 f0       	breq	.+14     	; 0x938 <vfprintf+0x80>
 92a:	80 33       	cpi	r24, 0x30	; 48
 92c:	39 f4       	brne	.+14     	; 0x93c <vfprintf+0x84>
 92e:	21 60       	ori	r18, 0x01	; 1
 930:	26 c0       	rjmp	.+76     	; 0x97e <vfprintf+0xc6>
 932:	22 60       	ori	r18, 0x02	; 2
 934:	24 60       	ori	r18, 0x04	; 4
 936:	23 c0       	rjmp	.+70     	; 0x97e <vfprintf+0xc6>
 938:	28 60       	ori	r18, 0x08	; 8
 93a:	21 c0       	rjmp	.+66     	; 0x97e <vfprintf+0xc6>
 93c:	27 fd       	sbrc	r18, 7
 93e:	27 c0       	rjmp	.+78     	; 0x98e <vfprintf+0xd6>
 940:	30 ed       	ldi	r19, 0xD0	; 208
 942:	38 0f       	add	r19, r24
 944:	3a 30       	cpi	r19, 0x0A	; 10
 946:	78 f4       	brcc	.+30     	; 0x966 <vfprintf+0xae>
 948:	26 ff       	sbrs	r18, 6
 94a:	06 c0       	rjmp	.+12     	; 0x958 <vfprintf+0xa0>
 94c:	85 2d       	mov	r24, r5
 94e:	6a e0       	ldi	r22, 0x0A	; 10
 950:	5e d2       	rcall	.+1212   	; 0xe0e <__mulqi3>
 952:	58 2e       	mov	r5, r24
 954:	53 0e       	add	r5, r19
 956:	13 c0       	rjmp	.+38     	; 0x97e <vfprintf+0xc6>
 958:	83 2d       	mov	r24, r3
 95a:	6a e0       	ldi	r22, 0x0A	; 10
 95c:	58 d2       	rcall	.+1200   	; 0xe0e <__mulqi3>
 95e:	38 2e       	mov	r3, r24
 960:	33 0e       	add	r3, r19
 962:	20 62       	ori	r18, 0x20	; 32
 964:	0c c0       	rjmp	.+24     	; 0x97e <vfprintf+0xc6>
 966:	8e 32       	cpi	r24, 0x2E	; 46
 968:	21 f4       	brne	.+8      	; 0x972 <vfprintf+0xba>
 96a:	26 fd       	sbrc	r18, 6
 96c:	5f c1       	rjmp	.+702    	; 0xc2c <vfprintf+0x374>
 96e:	20 64       	ori	r18, 0x40	; 64
 970:	06 c0       	rjmp	.+12     	; 0x97e <vfprintf+0xc6>
 972:	8c 36       	cpi	r24, 0x6C	; 108
 974:	11 f4       	brne	.+4      	; 0x97a <vfprintf+0xc2>
 976:	20 68       	ori	r18, 0x80	; 128
 978:	02 c0       	rjmp	.+4      	; 0x97e <vfprintf+0xc6>
 97a:	88 36       	cpi	r24, 0x68	; 104
 97c:	41 f4       	brne	.+16     	; 0x98e <vfprintf+0xd6>
 97e:	f6 01       	movw	r30, r12
 980:	93 fd       	sbrc	r25, 3
 982:	85 91       	lpm	r24, Z+
 984:	93 ff       	sbrs	r25, 3
 986:	81 91       	ld	r24, Z+
 988:	6f 01       	movw	r12, r30
 98a:	81 11       	cpse	r24, r1
 98c:	c1 cf       	rjmp	.-126    	; 0x910 <vfprintf+0x58>
 98e:	98 2f       	mov	r25, r24
 990:	9f 7d       	andi	r25, 0xDF	; 223
 992:	95 54       	subi	r25, 0x45	; 69
 994:	93 30       	cpi	r25, 0x03	; 3
 996:	28 f4       	brcc	.+10     	; 0x9a2 <vfprintf+0xea>
 998:	0c 5f       	subi	r16, 0xFC	; 252
 99a:	1f 4f       	sbci	r17, 0xFF	; 255
 99c:	ff e3       	ldi	r31, 0x3F	; 63
 99e:	f9 83       	std	Y+1, r31	; 0x01
 9a0:	0d c0       	rjmp	.+26     	; 0x9bc <vfprintf+0x104>
 9a2:	83 36       	cpi	r24, 0x63	; 99
 9a4:	31 f0       	breq	.+12     	; 0x9b2 <vfprintf+0xfa>
 9a6:	83 37       	cpi	r24, 0x73	; 115
 9a8:	71 f0       	breq	.+28     	; 0x9c6 <vfprintf+0x10e>
 9aa:	83 35       	cpi	r24, 0x53	; 83
 9ac:	09 f0       	breq	.+2      	; 0x9b0 <vfprintf+0xf8>
 9ae:	57 c0       	rjmp	.+174    	; 0xa5e <vfprintf+0x1a6>
 9b0:	21 c0       	rjmp	.+66     	; 0x9f4 <vfprintf+0x13c>
 9b2:	f8 01       	movw	r30, r16
 9b4:	80 81       	ld	r24, Z
 9b6:	89 83       	std	Y+1, r24	; 0x01
 9b8:	0e 5f       	subi	r16, 0xFE	; 254
 9ba:	1f 4f       	sbci	r17, 0xFF	; 255
 9bc:	44 24       	eor	r4, r4
 9be:	43 94       	inc	r4
 9c0:	51 2c       	mov	r5, r1
 9c2:	54 01       	movw	r10, r8
 9c4:	14 c0       	rjmp	.+40     	; 0x9ee <vfprintf+0x136>
 9c6:	38 01       	movw	r6, r16
 9c8:	f2 e0       	ldi	r31, 0x02	; 2
 9ca:	6f 0e       	add	r6, r31
 9cc:	71 1c       	adc	r7, r1
 9ce:	f8 01       	movw	r30, r16
 9d0:	a0 80       	ld	r10, Z
 9d2:	b1 80       	ldd	r11, Z+1	; 0x01
 9d4:	26 ff       	sbrs	r18, 6
 9d6:	03 c0       	rjmp	.+6      	; 0x9de <vfprintf+0x126>
 9d8:	65 2d       	mov	r22, r5
 9da:	70 e0       	ldi	r23, 0x00	; 0
 9dc:	02 c0       	rjmp	.+4      	; 0x9e2 <vfprintf+0x12a>
 9de:	6f ef       	ldi	r22, 0xFF	; 255
 9e0:	7f ef       	ldi	r23, 0xFF	; 255
 9e2:	c5 01       	movw	r24, r10
 9e4:	2c 87       	std	Y+12, r18	; 0x0c
 9e6:	36 d1       	rcall	.+620    	; 0xc54 <strnlen>
 9e8:	2c 01       	movw	r4, r24
 9ea:	83 01       	movw	r16, r6
 9ec:	2c 85       	ldd	r18, Y+12	; 0x0c
 9ee:	2f 77       	andi	r18, 0x7F	; 127
 9f0:	22 2e       	mov	r2, r18
 9f2:	16 c0       	rjmp	.+44     	; 0xa20 <vfprintf+0x168>
 9f4:	38 01       	movw	r6, r16
 9f6:	f2 e0       	ldi	r31, 0x02	; 2
 9f8:	6f 0e       	add	r6, r31
 9fa:	71 1c       	adc	r7, r1
 9fc:	f8 01       	movw	r30, r16
 9fe:	a0 80       	ld	r10, Z
 a00:	b1 80       	ldd	r11, Z+1	; 0x01
 a02:	26 ff       	sbrs	r18, 6
 a04:	03 c0       	rjmp	.+6      	; 0xa0c <vfprintf+0x154>
 a06:	65 2d       	mov	r22, r5
 a08:	70 e0       	ldi	r23, 0x00	; 0
 a0a:	02 c0       	rjmp	.+4      	; 0xa10 <vfprintf+0x158>
 a0c:	6f ef       	ldi	r22, 0xFF	; 255
 a0e:	7f ef       	ldi	r23, 0xFF	; 255
 a10:	c5 01       	movw	r24, r10
 a12:	2c 87       	std	Y+12, r18	; 0x0c
 a14:	14 d1       	rcall	.+552    	; 0xc3e <strnlen_P>
 a16:	2c 01       	movw	r4, r24
 a18:	2c 85       	ldd	r18, Y+12	; 0x0c
 a1a:	20 68       	ori	r18, 0x80	; 128
 a1c:	22 2e       	mov	r2, r18
 a1e:	83 01       	movw	r16, r6
 a20:	23 fc       	sbrc	r2, 3
 a22:	19 c0       	rjmp	.+50     	; 0xa56 <vfprintf+0x19e>
 a24:	83 2d       	mov	r24, r3
 a26:	90 e0       	ldi	r25, 0x00	; 0
 a28:	48 16       	cp	r4, r24
 a2a:	59 06       	cpc	r5, r25
 a2c:	a0 f4       	brcc	.+40     	; 0xa56 <vfprintf+0x19e>
 a2e:	b7 01       	movw	r22, r14
 a30:	80 e2       	ldi	r24, 0x20	; 32
 a32:	90 e0       	ldi	r25, 0x00	; 0
 a34:	1a d1       	rcall	.+564    	; 0xc6a <fputc>
 a36:	3a 94       	dec	r3
 a38:	f5 cf       	rjmp	.-22     	; 0xa24 <vfprintf+0x16c>
 a3a:	f5 01       	movw	r30, r10
 a3c:	27 fc       	sbrc	r2, 7
 a3e:	85 91       	lpm	r24, Z+
 a40:	27 fe       	sbrs	r2, 7
 a42:	81 91       	ld	r24, Z+
 a44:	5f 01       	movw	r10, r30
 a46:	b7 01       	movw	r22, r14
 a48:	90 e0       	ldi	r25, 0x00	; 0
 a4a:	0f d1       	rcall	.+542    	; 0xc6a <fputc>
 a4c:	31 10       	cpse	r3, r1
 a4e:	3a 94       	dec	r3
 a50:	f1 e0       	ldi	r31, 0x01	; 1
 a52:	4f 1a       	sub	r4, r31
 a54:	51 08       	sbc	r5, r1
 a56:	41 14       	cp	r4, r1
 a58:	51 04       	cpc	r5, r1
 a5a:	79 f7       	brne	.-34     	; 0xa3a <vfprintf+0x182>
 a5c:	de c0       	rjmp	.+444    	; 0xc1a <vfprintf+0x362>
 a5e:	84 36       	cpi	r24, 0x64	; 100
 a60:	11 f0       	breq	.+4      	; 0xa66 <vfprintf+0x1ae>
 a62:	89 36       	cpi	r24, 0x69	; 105
 a64:	31 f5       	brne	.+76     	; 0xab2 <vfprintf+0x1fa>
 a66:	f8 01       	movw	r30, r16
 a68:	27 ff       	sbrs	r18, 7
 a6a:	07 c0       	rjmp	.+14     	; 0xa7a <vfprintf+0x1c2>
 a6c:	60 81       	ld	r22, Z
 a6e:	71 81       	ldd	r23, Z+1	; 0x01
 a70:	82 81       	ldd	r24, Z+2	; 0x02
 a72:	93 81       	ldd	r25, Z+3	; 0x03
 a74:	0c 5f       	subi	r16, 0xFC	; 252
 a76:	1f 4f       	sbci	r17, 0xFF	; 255
 a78:	08 c0       	rjmp	.+16     	; 0xa8a <vfprintf+0x1d2>
 a7a:	60 81       	ld	r22, Z
 a7c:	71 81       	ldd	r23, Z+1	; 0x01
 a7e:	07 2e       	mov	r0, r23
 a80:	00 0c       	add	r0, r0
 a82:	88 0b       	sbc	r24, r24
 a84:	99 0b       	sbc	r25, r25
 a86:	0e 5f       	subi	r16, 0xFE	; 254
 a88:	1f 4f       	sbci	r17, 0xFF	; 255
 a8a:	2f 76       	andi	r18, 0x6F	; 111
 a8c:	72 2e       	mov	r7, r18
 a8e:	97 ff       	sbrs	r25, 7
 a90:	09 c0       	rjmp	.+18     	; 0xaa4 <vfprintf+0x1ec>
 a92:	90 95       	com	r25
 a94:	80 95       	com	r24
 a96:	70 95       	com	r23
 a98:	61 95       	neg	r22
 a9a:	7f 4f       	sbci	r23, 0xFF	; 255
 a9c:	8f 4f       	sbci	r24, 0xFF	; 255
 a9e:	9f 4f       	sbci	r25, 0xFF	; 255
 aa0:	20 68       	ori	r18, 0x80	; 128
 aa2:	72 2e       	mov	r7, r18
 aa4:	2a e0       	ldi	r18, 0x0A	; 10
 aa6:	30 e0       	ldi	r19, 0x00	; 0
 aa8:	a4 01       	movw	r20, r8
 aaa:	17 d1       	rcall	.+558    	; 0xcda <__ultoa_invert>
 aac:	a8 2e       	mov	r10, r24
 aae:	a8 18       	sub	r10, r8
 ab0:	43 c0       	rjmp	.+134    	; 0xb38 <vfprintf+0x280>
 ab2:	85 37       	cpi	r24, 0x75	; 117
 ab4:	29 f4       	brne	.+10     	; 0xac0 <vfprintf+0x208>
 ab6:	2f 7e       	andi	r18, 0xEF	; 239
 ab8:	b2 2e       	mov	r11, r18
 aba:	2a e0       	ldi	r18, 0x0A	; 10
 abc:	30 e0       	ldi	r19, 0x00	; 0
 abe:	25 c0       	rjmp	.+74     	; 0xb0a <vfprintf+0x252>
 ac0:	f2 2f       	mov	r31, r18
 ac2:	f9 7f       	andi	r31, 0xF9	; 249
 ac4:	bf 2e       	mov	r11, r31
 ac6:	8f 36       	cpi	r24, 0x6F	; 111
 ac8:	c1 f0       	breq	.+48     	; 0xafa <vfprintf+0x242>
 aca:	18 f4       	brcc	.+6      	; 0xad2 <vfprintf+0x21a>
 acc:	88 35       	cpi	r24, 0x58	; 88
 ace:	79 f0       	breq	.+30     	; 0xaee <vfprintf+0x236>
 ad0:	ad c0       	rjmp	.+346    	; 0xc2c <vfprintf+0x374>
 ad2:	80 37       	cpi	r24, 0x70	; 112
 ad4:	19 f0       	breq	.+6      	; 0xadc <vfprintf+0x224>
 ad6:	88 37       	cpi	r24, 0x78	; 120
 ad8:	21 f0       	breq	.+8      	; 0xae2 <vfprintf+0x22a>
 ada:	a8 c0       	rjmp	.+336    	; 0xc2c <vfprintf+0x374>
 adc:	2f 2f       	mov	r18, r31
 ade:	20 61       	ori	r18, 0x10	; 16
 ae0:	b2 2e       	mov	r11, r18
 ae2:	b4 fe       	sbrs	r11, 4
 ae4:	0d c0       	rjmp	.+26     	; 0xb00 <vfprintf+0x248>
 ae6:	8b 2d       	mov	r24, r11
 ae8:	84 60       	ori	r24, 0x04	; 4
 aea:	b8 2e       	mov	r11, r24
 aec:	09 c0       	rjmp	.+18     	; 0xb00 <vfprintf+0x248>
 aee:	24 ff       	sbrs	r18, 4
 af0:	0a c0       	rjmp	.+20     	; 0xb06 <vfprintf+0x24e>
 af2:	9f 2f       	mov	r25, r31
 af4:	96 60       	ori	r25, 0x06	; 6
 af6:	b9 2e       	mov	r11, r25
 af8:	06 c0       	rjmp	.+12     	; 0xb06 <vfprintf+0x24e>
 afa:	28 e0       	ldi	r18, 0x08	; 8
 afc:	30 e0       	ldi	r19, 0x00	; 0
 afe:	05 c0       	rjmp	.+10     	; 0xb0a <vfprintf+0x252>
 b00:	20 e1       	ldi	r18, 0x10	; 16
 b02:	30 e0       	ldi	r19, 0x00	; 0
 b04:	02 c0       	rjmp	.+4      	; 0xb0a <vfprintf+0x252>
 b06:	20 e1       	ldi	r18, 0x10	; 16
 b08:	32 e0       	ldi	r19, 0x02	; 2
 b0a:	f8 01       	movw	r30, r16
 b0c:	b7 fe       	sbrs	r11, 7
 b0e:	07 c0       	rjmp	.+14     	; 0xb1e <vfprintf+0x266>
 b10:	60 81       	ld	r22, Z
 b12:	71 81       	ldd	r23, Z+1	; 0x01
 b14:	82 81       	ldd	r24, Z+2	; 0x02
 b16:	93 81       	ldd	r25, Z+3	; 0x03
 b18:	0c 5f       	subi	r16, 0xFC	; 252
 b1a:	1f 4f       	sbci	r17, 0xFF	; 255
 b1c:	06 c0       	rjmp	.+12     	; 0xb2a <vfprintf+0x272>
 b1e:	60 81       	ld	r22, Z
 b20:	71 81       	ldd	r23, Z+1	; 0x01
 b22:	80 e0       	ldi	r24, 0x00	; 0
 b24:	90 e0       	ldi	r25, 0x00	; 0
 b26:	0e 5f       	subi	r16, 0xFE	; 254
 b28:	1f 4f       	sbci	r17, 0xFF	; 255
 b2a:	a4 01       	movw	r20, r8
 b2c:	d6 d0       	rcall	.+428    	; 0xcda <__ultoa_invert>
 b2e:	a8 2e       	mov	r10, r24
 b30:	a8 18       	sub	r10, r8
 b32:	fb 2d       	mov	r31, r11
 b34:	ff 77       	andi	r31, 0x7F	; 127
 b36:	7f 2e       	mov	r7, r31
 b38:	76 fe       	sbrs	r7, 6
 b3a:	0b c0       	rjmp	.+22     	; 0xb52 <vfprintf+0x29a>
 b3c:	37 2d       	mov	r19, r7
 b3e:	3e 7f       	andi	r19, 0xFE	; 254
 b40:	a5 14       	cp	r10, r5
 b42:	50 f4       	brcc	.+20     	; 0xb58 <vfprintf+0x2a0>
 b44:	74 fe       	sbrs	r7, 4
 b46:	0a c0       	rjmp	.+20     	; 0xb5c <vfprintf+0x2a4>
 b48:	72 fc       	sbrc	r7, 2
 b4a:	08 c0       	rjmp	.+16     	; 0xb5c <vfprintf+0x2a4>
 b4c:	37 2d       	mov	r19, r7
 b4e:	3e 7e       	andi	r19, 0xEE	; 238
 b50:	05 c0       	rjmp	.+10     	; 0xb5c <vfprintf+0x2a4>
 b52:	ba 2c       	mov	r11, r10
 b54:	37 2d       	mov	r19, r7
 b56:	03 c0       	rjmp	.+6      	; 0xb5e <vfprintf+0x2a6>
 b58:	ba 2c       	mov	r11, r10
 b5a:	01 c0       	rjmp	.+2      	; 0xb5e <vfprintf+0x2a6>
 b5c:	b5 2c       	mov	r11, r5
 b5e:	34 ff       	sbrs	r19, 4
 b60:	0d c0       	rjmp	.+26     	; 0xb7c <vfprintf+0x2c4>
 b62:	fe 01       	movw	r30, r28
 b64:	ea 0d       	add	r30, r10
 b66:	f1 1d       	adc	r31, r1
 b68:	80 81       	ld	r24, Z
 b6a:	80 33       	cpi	r24, 0x30	; 48
 b6c:	11 f4       	brne	.+4      	; 0xb72 <vfprintf+0x2ba>
 b6e:	39 7e       	andi	r19, 0xE9	; 233
 b70:	09 c0       	rjmp	.+18     	; 0xb84 <vfprintf+0x2cc>
 b72:	32 ff       	sbrs	r19, 2
 b74:	06 c0       	rjmp	.+12     	; 0xb82 <vfprintf+0x2ca>
 b76:	b3 94       	inc	r11
 b78:	b3 94       	inc	r11
 b7a:	04 c0       	rjmp	.+8      	; 0xb84 <vfprintf+0x2cc>
 b7c:	83 2f       	mov	r24, r19
 b7e:	86 78       	andi	r24, 0x86	; 134
 b80:	09 f0       	breq	.+2      	; 0xb84 <vfprintf+0x2cc>
 b82:	b3 94       	inc	r11
 b84:	33 fd       	sbrc	r19, 3
 b86:	12 c0       	rjmp	.+36     	; 0xbac <vfprintf+0x2f4>
 b88:	30 ff       	sbrs	r19, 0
 b8a:	06 c0       	rjmp	.+12     	; 0xb98 <vfprintf+0x2e0>
 b8c:	5a 2c       	mov	r5, r10
 b8e:	b3 14       	cp	r11, r3
 b90:	18 f4       	brcc	.+6      	; 0xb98 <vfprintf+0x2e0>
 b92:	53 0c       	add	r5, r3
 b94:	5b 18       	sub	r5, r11
 b96:	b3 2c       	mov	r11, r3
 b98:	b3 14       	cp	r11, r3
 b9a:	60 f4       	brcc	.+24     	; 0xbb4 <vfprintf+0x2fc>
 b9c:	b7 01       	movw	r22, r14
 b9e:	80 e2       	ldi	r24, 0x20	; 32
 ba0:	90 e0       	ldi	r25, 0x00	; 0
 ba2:	3c 87       	std	Y+12, r19	; 0x0c
 ba4:	62 d0       	rcall	.+196    	; 0xc6a <fputc>
 ba6:	b3 94       	inc	r11
 ba8:	3c 85       	ldd	r19, Y+12	; 0x0c
 baa:	f6 cf       	rjmp	.-20     	; 0xb98 <vfprintf+0x2e0>
 bac:	b3 14       	cp	r11, r3
 bae:	10 f4       	brcc	.+4      	; 0xbb4 <vfprintf+0x2fc>
 bb0:	3b 18       	sub	r3, r11
 bb2:	01 c0       	rjmp	.+2      	; 0xbb6 <vfprintf+0x2fe>
 bb4:	31 2c       	mov	r3, r1
 bb6:	34 ff       	sbrs	r19, 4
 bb8:	11 c0       	rjmp	.+34     	; 0xbdc <vfprintf+0x324>
 bba:	b7 01       	movw	r22, r14
 bbc:	80 e3       	ldi	r24, 0x30	; 48
 bbe:	90 e0       	ldi	r25, 0x00	; 0
 bc0:	3c 87       	std	Y+12, r19	; 0x0c
 bc2:	53 d0       	rcall	.+166    	; 0xc6a <fputc>
 bc4:	3c 85       	ldd	r19, Y+12	; 0x0c
 bc6:	32 ff       	sbrs	r19, 2
 bc8:	16 c0       	rjmp	.+44     	; 0xbf6 <vfprintf+0x33e>
 bca:	31 fd       	sbrc	r19, 1
 bcc:	03 c0       	rjmp	.+6      	; 0xbd4 <vfprintf+0x31c>
 bce:	88 e7       	ldi	r24, 0x78	; 120
 bd0:	90 e0       	ldi	r25, 0x00	; 0
 bd2:	02 c0       	rjmp	.+4      	; 0xbd8 <vfprintf+0x320>
 bd4:	88 e5       	ldi	r24, 0x58	; 88
 bd6:	90 e0       	ldi	r25, 0x00	; 0
 bd8:	b7 01       	movw	r22, r14
 bda:	0c c0       	rjmp	.+24     	; 0xbf4 <vfprintf+0x33c>
 bdc:	83 2f       	mov	r24, r19
 bde:	86 78       	andi	r24, 0x86	; 134
 be0:	51 f0       	breq	.+20     	; 0xbf6 <vfprintf+0x33e>
 be2:	31 ff       	sbrs	r19, 1
 be4:	02 c0       	rjmp	.+4      	; 0xbea <vfprintf+0x332>
 be6:	8b e2       	ldi	r24, 0x2B	; 43
 be8:	01 c0       	rjmp	.+2      	; 0xbec <vfprintf+0x334>
 bea:	80 e2       	ldi	r24, 0x20	; 32
 bec:	37 fd       	sbrc	r19, 7
 bee:	8d e2       	ldi	r24, 0x2D	; 45
 bf0:	b7 01       	movw	r22, r14
 bf2:	90 e0       	ldi	r25, 0x00	; 0
 bf4:	3a d0       	rcall	.+116    	; 0xc6a <fputc>
 bf6:	a5 14       	cp	r10, r5
 bf8:	30 f4       	brcc	.+12     	; 0xc06 <vfprintf+0x34e>
 bfa:	b7 01       	movw	r22, r14
 bfc:	80 e3       	ldi	r24, 0x30	; 48
 bfe:	90 e0       	ldi	r25, 0x00	; 0
 c00:	34 d0       	rcall	.+104    	; 0xc6a <fputc>
 c02:	5a 94       	dec	r5
 c04:	f8 cf       	rjmp	.-16     	; 0xbf6 <vfprintf+0x33e>
 c06:	aa 94       	dec	r10
 c08:	f4 01       	movw	r30, r8
 c0a:	ea 0d       	add	r30, r10
 c0c:	f1 1d       	adc	r31, r1
 c0e:	80 81       	ld	r24, Z
 c10:	b7 01       	movw	r22, r14
 c12:	90 e0       	ldi	r25, 0x00	; 0
 c14:	2a d0       	rcall	.+84     	; 0xc6a <fputc>
 c16:	a1 10       	cpse	r10, r1
 c18:	f6 cf       	rjmp	.-20     	; 0xc06 <vfprintf+0x34e>
 c1a:	33 20       	and	r3, r3
 c1c:	09 f4       	brne	.+2      	; 0xc20 <vfprintf+0x368>
 c1e:	5d ce       	rjmp	.-838    	; 0x8da <vfprintf+0x22>
 c20:	b7 01       	movw	r22, r14
 c22:	80 e2       	ldi	r24, 0x20	; 32
 c24:	90 e0       	ldi	r25, 0x00	; 0
 c26:	21 d0       	rcall	.+66     	; 0xc6a <fputc>
 c28:	3a 94       	dec	r3
 c2a:	f7 cf       	rjmp	.-18     	; 0xc1a <vfprintf+0x362>
 c2c:	f7 01       	movw	r30, r14
 c2e:	86 81       	ldd	r24, Z+6	; 0x06
 c30:	97 81       	ldd	r25, Z+7	; 0x07
 c32:	02 c0       	rjmp	.+4      	; 0xc38 <vfprintf+0x380>
 c34:	8f ef       	ldi	r24, 0xFF	; 255
 c36:	9f ef       	ldi	r25, 0xFF	; 255
 c38:	2c 96       	adiw	r28, 0x0c	; 12
 c3a:	e2 e1       	ldi	r30, 0x12	; 18
 c3c:	0d c1       	rjmp	.+538    	; 0xe58 <__epilogue_restores__>

00000c3e <strnlen_P>:
 c3e:	fc 01       	movw	r30, r24
 c40:	05 90       	lpm	r0, Z+
 c42:	61 50       	subi	r22, 0x01	; 1
 c44:	70 40       	sbci	r23, 0x00	; 0
 c46:	01 10       	cpse	r0, r1
 c48:	d8 f7       	brcc	.-10     	; 0xc40 <strnlen_P+0x2>
 c4a:	80 95       	com	r24
 c4c:	90 95       	com	r25
 c4e:	8e 0f       	add	r24, r30
 c50:	9f 1f       	adc	r25, r31
 c52:	08 95       	ret

00000c54 <strnlen>:
 c54:	fc 01       	movw	r30, r24
 c56:	61 50       	subi	r22, 0x01	; 1
 c58:	70 40       	sbci	r23, 0x00	; 0
 c5a:	01 90       	ld	r0, Z+
 c5c:	01 10       	cpse	r0, r1
 c5e:	d8 f7       	brcc	.-10     	; 0xc56 <strnlen+0x2>
 c60:	80 95       	com	r24
 c62:	90 95       	com	r25
 c64:	8e 0f       	add	r24, r30
 c66:	9f 1f       	adc	r25, r31
 c68:	08 95       	ret

00000c6a <fputc>:
 c6a:	0f 93       	push	r16
 c6c:	1f 93       	push	r17
 c6e:	cf 93       	push	r28
 c70:	df 93       	push	r29
 c72:	fb 01       	movw	r30, r22
 c74:	23 81       	ldd	r18, Z+3	; 0x03
 c76:	21 fd       	sbrc	r18, 1
 c78:	03 c0       	rjmp	.+6      	; 0xc80 <fputc+0x16>
 c7a:	8f ef       	ldi	r24, 0xFF	; 255
 c7c:	9f ef       	ldi	r25, 0xFF	; 255
 c7e:	28 c0       	rjmp	.+80     	; 0xcd0 <fputc+0x66>
 c80:	22 ff       	sbrs	r18, 2
 c82:	16 c0       	rjmp	.+44     	; 0xcb0 <fputc+0x46>
 c84:	46 81       	ldd	r20, Z+6	; 0x06
 c86:	57 81       	ldd	r21, Z+7	; 0x07
 c88:	24 81       	ldd	r18, Z+4	; 0x04
 c8a:	35 81       	ldd	r19, Z+5	; 0x05
 c8c:	42 17       	cp	r20, r18
 c8e:	53 07       	cpc	r21, r19
 c90:	44 f4       	brge	.+16     	; 0xca2 <fputc+0x38>
 c92:	a0 81       	ld	r26, Z
 c94:	b1 81       	ldd	r27, Z+1	; 0x01
 c96:	9d 01       	movw	r18, r26
 c98:	2f 5f       	subi	r18, 0xFF	; 255
 c9a:	3f 4f       	sbci	r19, 0xFF	; 255
 c9c:	31 83       	std	Z+1, r19	; 0x01
 c9e:	20 83       	st	Z, r18
 ca0:	8c 93       	st	X, r24
 ca2:	26 81       	ldd	r18, Z+6	; 0x06
 ca4:	37 81       	ldd	r19, Z+7	; 0x07
 ca6:	2f 5f       	subi	r18, 0xFF	; 255
 ca8:	3f 4f       	sbci	r19, 0xFF	; 255
 caa:	37 83       	std	Z+7, r19	; 0x07
 cac:	26 83       	std	Z+6, r18	; 0x06
 cae:	10 c0       	rjmp	.+32     	; 0xcd0 <fputc+0x66>
 cb0:	eb 01       	movw	r28, r22
 cb2:	09 2f       	mov	r16, r25
 cb4:	18 2f       	mov	r17, r24
 cb6:	00 84       	ldd	r0, Z+8	; 0x08
 cb8:	f1 85       	ldd	r31, Z+9	; 0x09
 cba:	e0 2d       	mov	r30, r0
 cbc:	09 95       	icall
 cbe:	89 2b       	or	r24, r25
 cc0:	e1 f6       	brne	.-72     	; 0xc7a <fputc+0x10>
 cc2:	8e 81       	ldd	r24, Y+6	; 0x06
 cc4:	9f 81       	ldd	r25, Y+7	; 0x07
 cc6:	01 96       	adiw	r24, 0x01	; 1
 cc8:	9f 83       	std	Y+7, r25	; 0x07
 cca:	8e 83       	std	Y+6, r24	; 0x06
 ccc:	81 2f       	mov	r24, r17
 cce:	90 2f       	mov	r25, r16
 cd0:	df 91       	pop	r29
 cd2:	cf 91       	pop	r28
 cd4:	1f 91       	pop	r17
 cd6:	0f 91       	pop	r16
 cd8:	08 95       	ret

00000cda <__ultoa_invert>:
 cda:	fa 01       	movw	r30, r20
 cdc:	aa 27       	eor	r26, r26
 cde:	28 30       	cpi	r18, 0x08	; 8
 ce0:	61 f1       	breq	.+88     	; 0xd3a <__ultoa_invert+0x60>
 ce2:	20 31       	cpi	r18, 0x10	; 16
 ce4:	91 f1       	breq	.+100    	; 0xd4a <__ultoa_invert+0x70>
 ce6:	e8 94       	clt
 ce8:	6f 93       	push	r22
 cea:	6e 7f       	andi	r22, 0xFE	; 254
 cec:	6e 5f       	subi	r22, 0xFE	; 254
 cee:	7f 4f       	sbci	r23, 0xFF	; 255
 cf0:	8f 4f       	sbci	r24, 0xFF	; 255
 cf2:	9f 4f       	sbci	r25, 0xFF	; 255
 cf4:	af 4f       	sbci	r26, 0xFF	; 255
 cf6:	b1 e0       	ldi	r27, 0x01	; 1
 cf8:	40 d0       	rcall	.+128    	; 0xd7a <__ultoa_invert+0xa0>
 cfa:	b4 e0       	ldi	r27, 0x04	; 4
 cfc:	3e d0       	rcall	.+124    	; 0xd7a <__ultoa_invert+0xa0>
 cfe:	67 0f       	add	r22, r23
 d00:	78 1f       	adc	r23, r24
 d02:	89 1f       	adc	r24, r25
 d04:	9a 1f       	adc	r25, r26
 d06:	a1 1d       	adc	r26, r1
 d08:	68 0f       	add	r22, r24
 d0a:	79 1f       	adc	r23, r25
 d0c:	8a 1f       	adc	r24, r26
 d0e:	91 1d       	adc	r25, r1
 d10:	a1 1d       	adc	r26, r1
 d12:	6a 0f       	add	r22, r26
 d14:	71 1d       	adc	r23, r1
 d16:	81 1d       	adc	r24, r1
 d18:	91 1d       	adc	r25, r1
 d1a:	a1 1d       	adc	r26, r1
 d1c:	22 d0       	rcall	.+68     	; 0xd62 <__ultoa_invert+0x88>
 d1e:	09 f4       	brne	.+2      	; 0xd22 <__ultoa_invert+0x48>
 d20:	68 94       	set
 d22:	3f 91       	pop	r19
 d24:	06 2e       	mov	r0, r22
 d26:	00 0c       	add	r0, r0
 d28:	30 19       	sub	r19, r0
 d2a:	00 0c       	add	r0, r0
 d2c:	00 0c       	add	r0, r0
 d2e:	30 19       	sub	r19, r0
 d30:	30 5d       	subi	r19, 0xD0	; 208
 d32:	31 93       	st	Z+, r19
 d34:	ce f6       	brtc	.-78     	; 0xce8 <__ultoa_invert+0xe>
 d36:	cf 01       	movw	r24, r30
 d38:	08 95       	ret
 d3a:	46 2f       	mov	r20, r22
 d3c:	47 70       	andi	r20, 0x07	; 7
 d3e:	40 5d       	subi	r20, 0xD0	; 208
 d40:	41 93       	st	Z+, r20
 d42:	b3 e0       	ldi	r27, 0x03	; 3
 d44:	0f d0       	rcall	.+30     	; 0xd64 <__ultoa_invert+0x8a>
 d46:	c9 f7       	brne	.-14     	; 0xd3a <__ultoa_invert+0x60>
 d48:	f6 cf       	rjmp	.-20     	; 0xd36 <__ultoa_invert+0x5c>
 d4a:	46 2f       	mov	r20, r22
 d4c:	4f 70       	andi	r20, 0x0F	; 15
 d4e:	40 5d       	subi	r20, 0xD0	; 208
 d50:	4a 33       	cpi	r20, 0x3A	; 58
 d52:	18 f0       	brcs	.+6      	; 0xd5a <__ultoa_invert+0x80>
 d54:	49 5d       	subi	r20, 0xD9	; 217
 d56:	31 fd       	sbrc	r19, 1
 d58:	40 52       	subi	r20, 0x20	; 32
 d5a:	41 93       	st	Z+, r20
 d5c:	02 d0       	rcall	.+4      	; 0xd62 <__ultoa_invert+0x88>
 d5e:	a9 f7       	brne	.-22     	; 0xd4a <__ultoa_invert+0x70>
 d60:	ea cf       	rjmp	.-44     	; 0xd36 <__ultoa_invert+0x5c>
 d62:	b4 e0       	ldi	r27, 0x04	; 4
 d64:	a6 95       	lsr	r26
 d66:	97 95       	ror	r25
 d68:	87 95       	ror	r24
 d6a:	77 95       	ror	r23
 d6c:	67 95       	ror	r22
 d6e:	ba 95       	dec	r27
 d70:	c9 f7       	brne	.-14     	; 0xd64 <__ultoa_invert+0x8a>
 d72:	00 97       	sbiw	r24, 0x00	; 0
 d74:	61 05       	cpc	r22, r1
 d76:	71 05       	cpc	r23, r1
 d78:	08 95       	ret
 d7a:	9b 01       	movw	r18, r22
 d7c:	ac 01       	movw	r20, r24
 d7e:	0a 2e       	mov	r0, r26
 d80:	06 94       	lsr	r0
 d82:	57 95       	ror	r21
 d84:	47 95       	ror	r20
 d86:	37 95       	ror	r19
 d88:	27 95       	ror	r18
 d8a:	ba 95       	dec	r27
 d8c:	c9 f7       	brne	.-14     	; 0xd80 <__ultoa_invert+0xa6>
 d8e:	62 0f       	add	r22, r18
 d90:	73 1f       	adc	r23, r19
 d92:	84 1f       	adc	r24, r20
 d94:	95 1f       	adc	r25, r21
 d96:	a0 1d       	adc	r26, r0
 d98:	08 95       	ret

00000d9a <eeprom_read_word>:
 d9a:	a8 e1       	ldi	r26, 0x18	; 24
 d9c:	b0 e0       	ldi	r27, 0x00	; 0
 d9e:	42 e0       	ldi	r20, 0x02	; 2
 da0:	50 e0       	ldi	r21, 0x00	; 0
 da2:	27 c0       	rjmp	.+78     	; 0xdf2 <eeprom_read_blraw>

00000da4 <eeprom_update_block>:
 da4:	dc 01       	movw	r26, r24
 da6:	a4 0f       	add	r26, r20
 da8:	b5 1f       	adc	r27, r21
 daa:	41 50       	subi	r20, 0x01	; 1
 dac:	50 40       	sbci	r21, 0x00	; 0
 dae:	40 f0       	brcs	.+16     	; 0xdc0 <eeprom_update_block+0x1c>
 db0:	cb 01       	movw	r24, r22
 db2:	84 0f       	add	r24, r20
 db4:	95 1f       	adc	r25, r21
 db6:	2e 91       	ld	r18, -X
 db8:	05 d0       	rcall	.+10     	; 0xdc4 <eeprom_update_r18>
 dba:	41 50       	subi	r20, 0x01	; 1
 dbc:	50 40       	sbci	r21, 0x00	; 0
 dbe:	d8 f7       	brcc	.-10     	; 0xdb6 <eeprom_update_block+0x12>
 dc0:	08 95       	ret

00000dc2 <eeprom_update_byte>:
 dc2:	26 2f       	mov	r18, r22

00000dc4 <eeprom_update_r18>:
 dc4:	e1 99       	sbic	0x1c, 1	; 28
 dc6:	fe cf       	rjmp	.-4      	; 0xdc4 <eeprom_update_r18>
 dc8:	9f bb       	out	0x1f, r25	; 31
 dca:	8e bb       	out	0x1e, r24	; 30
 dcc:	e0 9a       	sbi	0x1c, 0	; 28
 dce:	01 97       	sbiw	r24, 0x01	; 1
 dd0:	0d b2       	in	r0, 0x1d	; 29
 dd2:	02 16       	cp	r0, r18
 dd4:	39 f0       	breq	.+14     	; 0xde4 <eeprom_update_r18+0x20>
 dd6:	1c ba       	out	0x1c, r1	; 28
 dd8:	2d bb       	out	0x1d, r18	; 29
 dda:	0f b6       	in	r0, 0x3f	; 63
 ddc:	f8 94       	cli
 dde:	e2 9a       	sbi	0x1c, 2	; 28
 de0:	e1 9a       	sbi	0x1c, 1	; 28
 de2:	0f be       	out	0x3f, r0	; 63
 de4:	08 95       	ret

00000de6 <eeprom_update_word>:
 de6:	01 96       	adiw	r24, 0x01	; 1
 de8:	27 2f       	mov	r18, r23
 dea:	ec df       	rcall	.-40     	; 0xdc4 <eeprom_update_r18>
 dec:	ea cf       	rjmp	.-44     	; 0xdc2 <eeprom_update_byte>

00000dee <eeprom_read_block>:
 dee:	dc 01       	movw	r26, r24
 df0:	cb 01       	movw	r24, r22

00000df2 <eeprom_read_blraw>:
 df2:	fc 01       	movw	r30, r24
 df4:	e1 99       	sbic	0x1c, 1	; 28
 df6:	fe cf       	rjmp	.-4      	; 0xdf4 <eeprom_read_blraw+0x2>
 df8:	06 c0       	rjmp	.+12     	; 0xe06 <eeprom_read_blraw+0x14>
 dfa:	ff bb       	out	0x1f, r31	; 31
 dfc:	ee bb       	out	0x1e, r30	; 30
 dfe:	e0 9a       	sbi	0x1c, 0	; 28
 e00:	31 96       	adiw	r30, 0x01	; 1
 e02:	0d b2       	in	r0, 0x1d	; 29
 e04:	0d 92       	st	X+, r0
 e06:	41 50       	subi	r20, 0x01	; 1
 e08:	50 40       	sbci	r21, 0x00	; 0
 e0a:	b8 f7       	brcc	.-18     	; 0xdfa <eeprom_read_blraw+0x8>
 e0c:	08 95       	ret

00000e0e <__mulqi3>:
 e0e:	00 24       	eor	r0, r0

00000e10 <__mulqi3_loop>:
 e10:	80 fd       	sbrc	r24, 0
 e12:	06 0e       	add	r0, r22
 e14:	66 0f       	add	r22, r22
 e16:	11 f0       	breq	.+4      	; 0xe1c <__mulqi3_exit>
 e18:	86 95       	lsr	r24
 e1a:	d1 f7       	brne	.-12     	; 0xe10 <__mulqi3_loop>

00000e1c <__mulqi3_exit>:
 e1c:	80 2d       	mov	r24, r0
 e1e:	08 95       	ret

00000e20 <__prologue_saves__>:
 e20:	2f 92       	push	r2
 e22:	3f 92       	push	r3
 e24:	4f 92       	push	r4
 e26:	5f 92       	push	r5
 e28:	6f 92       	push	r6
 e2a:	7f 92       	push	r7
 e2c:	8f 92       	push	r8
 e2e:	9f 92       	push	r9
 e30:	af 92       	push	r10
 e32:	bf 92       	push	r11
 e34:	cf 92       	push	r12
 e36:	df 92       	push	r13
 e38:	ef 92       	push	r14
 e3a:	ff 92       	push	r15
 e3c:	0f 93       	push	r16
 e3e:	1f 93       	push	r17
 e40:	cf 93       	push	r28
 e42:	df 93       	push	r29
 e44:	cd b7       	in	r28, 0x3d	; 61
 e46:	de b7       	in	r29, 0x3e	; 62
 e48:	ca 1b       	sub	r28, r26
 e4a:	db 0b       	sbc	r29, r27
 e4c:	0f b6       	in	r0, 0x3f	; 63
 e4e:	f8 94       	cli
 e50:	de bf       	out	0x3e, r29	; 62
 e52:	0f be       	out	0x3f, r0	; 63
 e54:	cd bf       	out	0x3d, r28	; 61
 e56:	09 94       	ijmp

00000e58 <__epilogue_restores__>:
 e58:	2a 88       	ldd	r2, Y+18	; 0x12
 e5a:	39 88       	ldd	r3, Y+17	; 0x11
 e5c:	48 88       	ldd	r4, Y+16	; 0x10
 e5e:	5f 84       	ldd	r5, Y+15	; 0x0f
 e60:	6e 84       	ldd	r6, Y+14	; 0x0e
 e62:	7d 84       	ldd	r7, Y+13	; 0x0d
 e64:	8c 84       	ldd	r8, Y+12	; 0x0c
 e66:	9b 84       	ldd	r9, Y+11	; 0x0b
 e68:	aa 84       	ldd	r10, Y+10	; 0x0a
 e6a:	b9 84       	ldd	r11, Y+9	; 0x09
 e6c:	c8 84       	ldd	r12, Y+8	; 0x08
 e6e:	df 80       	ldd	r13, Y+7	; 0x07
 e70:	ee 80       	ldd	r14, Y+6	; 0x06
 e72:	fd 80       	ldd	r15, Y+5	; 0x05
 e74:	0c 81       	ldd	r16, Y+4	; 0x04
 e76:	1b 81       	ldd	r17, Y+3	; 0x03
 e78:	aa 81       	ldd	r26, Y+2	; 0x02
 e7a:	b9 81       	ldd	r27, Y+1	; 0x01
 e7c:	ce 0f       	add	r28, r30
 e7e:	d1 1d       	adc	r29, r1
 e80:	0f b6       	in	r0, 0x3f	; 63
 e82:	f8 94       	cli
 e84:	de bf       	out	0x3e, r29	; 62
 e86:	0f be       	out	0x3f, r0	; 63
 e88:	cd bf       	out	0x3d, r28	; 61
 e8a:	ed 01       	movw	r28, r26
 e8c:	08 95       	ret

00000e8e <_exit>:
 e8e:	f8 94       	cli

00000e90 <__stop_program>:
 e90:	ff cf       	rjmp	.-2      	; 0xe90 <__stop_program>
